                                      1 ;--------------------------------------------------------
                                      2 ; File Created by SDCC : free open source ISO C Compiler 
                                      3 ; Version 4.3.2 #14228 (MINGW32)
                                      4 ;--------------------------------------------------------
                                      5 	.module main
                                      6 	.optsdcc -msm83
                                      7 	
                                      8 ;--------------------------------------------------------
                                      9 ; Public variables in this module
                                     10 ;--------------------------------------------------------
                                     11 	.globl _main
                                     12 	.globl _playerMovement
                                     13 	.globl _loadSprites
                                     14 	.globl _setBackground
                                     15 	.globl _setupCharacter
                                     16 	.globl _moveCharacter
                                     17 	.globl _LoadCharacterFrame
                                     18 	.globl _setupSprites
                                     19 	.globl _scrollSprite
                                     20 	.globl _moveSprite
                                     21 	.globl _LoadSpriteFrame
                                     22 	.globl _getSpriteBox
                                     23 	.globl _set_sprite_data
                                     24 	.globl _set_bkg_tiles
                                     25 	.globl _set_bkg_data
                                     26 	.globl _wait_vbl_done
                                     27 	.globl _joypad
                                     28 	.globl _spriteXpos
                                     29 	.globl _characterXpos
                                     30 	.globl _characterYpos
                                     31 	.globl _spriteYpos
                                     32 	.globl _Wine
                                     33 	.globl _Bartender
                                     34 	.globl _BackgroundTiles
                                     35 	.globl _backgroundmap
                                     36 	.globl _bartender
                                     37 	.globl _wineglass
                                     38 ;--------------------------------------------------------
                                     39 ; special function registers
                                     40 ;--------------------------------------------------------
                                     41 ;--------------------------------------------------------
                                     42 ; ram data
                                     43 ;--------------------------------------------------------
                                     44 	.area _DATA
      000000                         45 _wineglass::
      000000                         46 	.ds 15
      00000F                         47 _bartender::
      00000F                         48 	.ds 12
                                     49 ;--------------------------------------------------------
                                     50 ; ram data
                                     51 ;--------------------------------------------------------
                                     52 	.area _INITIALIZED
      000000                         53 _backgroundmap::
      000000                         54 	.ds 360
      000168                         55 _BackgroundTiles::
      000168                         56 	.ds 304
      000298                         57 _Bartender::
      000298                         58 	.ds 64
      0002D8                         59 _Wine::
      0002D8                         60 	.ds 16
      0002E8                         61 _spriteYpos::
      0002E8                         62 	.ds 1
      0002E9                         63 _characterYpos::
      0002E9                         64 	.ds 1
      0002EA                         65 _characterXpos::
      0002EA                         66 	.ds 1
      0002EB                         67 _spriteXpos::
      0002EB                         68 	.ds 1
                                     69 ;--------------------------------------------------------
                                     70 ; absolute external ram data
                                     71 ;--------------------------------------------------------
                                     72 	.area _DABS (ABS)
                                     73 ;--------------------------------------------------------
                                     74 ; global & static initialisations
                                     75 ;--------------------------------------------------------
                                     76 	.area _HOME
                                     77 	.area _GSINIT
                                     78 	.area _GSFINAL
                                     79 	.area _GSINIT
                                     80 ;--------------------------------------------------------
                                     81 ; Home
                                     82 ;--------------------------------------------------------
                                     83 	.area _HOME
                                     84 	.area _HOME
                                     85 ;--------------------------------------------------------
                                     86 ; code
                                     87 ;--------------------------------------------------------
                                     88 	.area _CODE
                                     89 ;spritestructs.h:45: void getSpriteBox(Sprite *sprite, uint8_t x, uint8_t y)
                                     90 ;	---------------------------------
                                     91 ; Function getSpriteBox
                                     92 ; ---------------------------------
      000000                         93 _getSpriteBox::
      000000 4F               [ 4]   94 	ld	c, a
                                     95 ;spritestructs.h:47: sprite->x = x;
      000001 21 06 00         [12]   96 	ld	hl, #0x0006
      000004 19               [ 8]   97 	add	hl, de
      000005 71               [ 8]   98 	ld	(hl), c
                                     99 ;spritestructs.h:48: sprite->y = y;
      000006 21 07 00         [12]  100 	ld	hl, #0x0007
      000009 19               [ 8]  101 	add	hl, de
      00000A 4D               [ 4]  102 	ld	c, l
      00000B 44               [ 4]  103 	ld	b, h
      00000C F8 02            [12]  104 	ldhl	sp,	#2
      00000E 7E               [ 8]  105 	ld	a, (hl)
      00000F 02               [ 8]  106 	ld	(bc), a
                                    107 ;spritestructs.h:57: boxYbounds = sprite->YBounds;
                                    108 ;spritestructs.h:66: }
      000010 E1               [12]  109 	pop	hl
      000011 33               [ 8]  110 	inc	sp
      000012 E9               [ 4]  111 	jp	(hl)
                                    112 ;spritestructs.h:68: void LoadSpriteFrame(Sprite *sprite, uint8_t frame)
                                    113 ;	---------------------------------
                                    114 ; Function LoadSpriteFrame
                                    115 ; ---------------------------------
      000013                        116 _LoadSpriteFrame::
      000013 E8 FC            [16]  117 	add	sp, #-4
      000015 4B               [ 4]  118 	ld	c, e
      000016 42               [ 4]  119 	ld	b, d
      000017 5F               [ 4]  120 	ld	e, a
                                    121 ;spritestructs.h:70: sprite->spritecurrentFrame = frame;
      000018 21 04 00         [12]  122 	ld	hl, #0x0004
      00001B 09               [ 8]  123 	add	hl, bc
      00001C 73               [ 8]  124 	ld	(hl), e
                                    125 ;spritestructs.h:72: uint8_t spriteCount = sprite->spriteWidth * sprite->spriteHeight;
      00001D 69               [ 4]  126 	ld	l, c
                                    127 ;	spillPairReg hl
                                    128 ;	spillPairReg hl
      00001E 60               [ 4]  129 	ld	h, b
                                    130 ;	spillPairReg hl
                                    131 ;	spillPairReg hl
      00001F 23               [ 8]  132 	inc	hl
      000020 23               [ 8]  133 	inc	hl
      000021 56               [ 8]  134 	ld	d, (hl)
      000022 69               [ 4]  135 	ld	l, c
                                    136 ;	spillPairReg hl
                                    137 ;	spillPairReg hl
      000023 60               [ 4]  138 	ld	h, b
                                    139 ;	spillPairReg hl
                                    140 ;	spillPairReg hl
      000024 23               [ 8]  141 	inc	hl
      000025 5E               [ 8]  142 	ld	e, (hl)
      000026 C5               [16]  143 	push	bc
      000027 7A               [ 4]  144 	ld	a, d
                                    145 ;spritestructs.h:74: for (uint8_t i = 0; i != spriteCount; i++)
      000028 CDr00r00         [24]  146 	call	__muluchar
      00002B F8 02            [12]  147 	ldhl	sp,	#2
      00002D 71               [ 8]  148 	ld	(hl), c
      00002E C1               [12]  149 	pop	bc
      00002F 21 05 00         [12]  150 	ld	hl, #0x0005
      000032 09               [ 8]  151 	add	hl, bc
      000033 E5               [16]  152 	push	hl
      000034 7D               [ 4]  153 	ld	a, l
      000035 F8 03            [12]  154 	ldhl	sp,	#3
      000037 77               [ 8]  155 	ld	(hl), a
      000038 E1               [12]  156 	pop	hl
      000039 7C               [ 4]  157 	ld	a, h
      00003A F8 02            [12]  158 	ldhl	sp,	#2
      00003C 22               [ 8]  159 	ld	(hl+), a
      00003D 36 00            [12]  160 	ld	(hl), #0x00
      00003F                        161 00104$:
      00003F F8 00            [12]  162 	ldhl	sp,	#0
      000041 7E               [ 8]  163 	ld	a, (hl)
      000042 F8 03            [12]  164 	ldhl	sp,	#3
      000044 96               [ 8]  165 	sub	a, (hl)
      000045 28 1F            [12]  166 	jr	Z, 00106$
                                    167 ;spritestructs.h:76: set_sprite_tile(sprite->spriteID + i, sprite->tilesetStart + i);
      000047 F8 01            [12]  168 	ldhl	sp,#1
      000049 2A               [ 8]  169 	ld	a, (hl+)
      00004A 5F               [ 4]  170 	ld	e, a
      00004B 2A               [ 8]  171 	ld	a, (hl+)
      00004C 57               [ 4]  172 	ld	d, a
      00004D 1A               [ 8]  173 	ld	a, (de)
      00004E 86               [ 8]  174 	add	a, (hl)
      00004F 5F               [ 4]  175 	ld	e, a
      000050 0A               [ 8]  176 	ld	a, (bc)
      000051 86               [ 8]  177 	add	a, (hl)
      000052 57               [ 4]  178 	ld	d, a
                                    179 ;c:\gbdk\include\gb\gb.h:1804: shadow_OAM[nb].tile=tile;
      000053 26 00            [ 8]  180 	ld	h, #0x00
                                    181 ;	spillPairReg hl
                                    182 ;	spillPairReg hl
      000055 6A               [ 4]  183 	ld	l, d
      000056 29               [ 8]  184 	add	hl, hl
      000057 29               [ 8]  185 	add	hl, hl
      000058 D5               [16]  186 	push	de
      000059 11r00r00         [12]  187 	ld	de, #_shadow_OAM
      00005C 19               [ 8]  188 	add	hl, de
      00005D 23               [ 8]  189 	inc	hl
      00005E 23               [ 8]  190 	inc	hl
      00005F D1               [12]  191 	pop	de
      000060 73               [ 8]  192 	ld	(hl), e
                                    193 ;spritestructs.h:74: for (uint8_t i = 0; i != spriteCount; i++)
      000061 F8 03            [12]  194 	ldhl	sp,	#3
      000063 34               [12]  195 	inc	(hl)
      000064 18 D9            [12]  196 	jr	00104$
      000066                        197 00106$:
                                    198 ;spritestructs.h:78: }
      000066 E8 04            [16]  199 	add	sp, #4
      000068 C9               [16]  200 	ret
                                    201 ;spritestructs.h:80: void moveSprite (Sprite *sprite, uint8_t x, uint8_t y)
                                    202 ;	---------------------------------
                                    203 ; Function moveSprite
                                    204 ; ---------------------------------
      000069                        205 _moveSprite::
      000069 E8 F8            [16]  206 	add	sp, #-8
      00006B 4B               [ 4]  207 	ld	c, e
      00006C 42               [ 4]  208 	ld	b, d
      00006D F8 05            [12]  209 	ldhl	sp,	#5
      00006F 77               [ 8]  210 	ld	(hl), a
                                    211 ;spritestructs.h:82: sprite->x = x;
      000070 21 06 00         [12]  212 	ld	hl, #0x0006
      000073 09               [ 8]  213 	add	hl, bc
      000074 5D               [ 4]  214 	ld	e, l
      000075 54               [ 4]  215 	ld	d, h
      000076 F8 05            [12]  216 	ldhl	sp,	#5
      000078 7E               [ 8]  217 	ld	a, (hl)
      000079 12               [ 8]  218 	ld	(de), a
                                    219 ;spritestructs.h:83: sprite->y = y;
      00007A 21 07 00         [12]  220 	ld	hl, #0x0007
      00007D 09               [ 8]  221 	add	hl, bc
      00007E 5D               [ 4]  222 	ld	e, l
      00007F 54               [ 4]  223 	ld	d, h
      000080 F8 0A            [12]  224 	ldhl	sp,	#10
      000082 7E               [ 8]  225 	ld	a, (hl)
      000083 12               [ 8]  226 	ld	(de), a
                                    227 ;spritestructs.h:85: for (uint8_t iy = 0; iy!= sprite->spriteHeight; iy++)
      000084 21 02 00         [12]  228 	ld	hl, #0x0002
      000087 09               [ 8]  229 	add	hl, bc
      000088 33               [ 8]  230 	inc	sp
      000089 33               [ 8]  231 	inc	sp
      00008A E5               [16]  232 	push	hl
      00008B 69               [ 4]  233 	ld	l, c
      00008C 60               [ 4]  234 	ld	h, b
      00008D 23               [ 8]  235 	inc	hl
      00008E E5               [16]  236 	push	hl
      00008F 7D               [ 4]  237 	ld	a, l
      000090 F8 04            [12]  238 	ldhl	sp,	#4
      000092 77               [ 8]  239 	ld	(hl), a
      000093 E1               [12]  240 	pop	hl
      000094 7C               [ 4]  241 	ld	a, h
      000095 F8 03            [12]  242 	ldhl	sp,	#3
      000097 77               [ 8]  243 	ld	(hl), a
      000098 F8 06            [12]  244 	ldhl	sp,	#6
      00009A 36 00            [12]  245 	ld	(hl), #0x00
      00009C                        246 00108$:
      00009C F8 02            [12]  247 	ldhl	sp,#2
      00009E 2A               [ 8]  248 	ld	a, (hl+)
      00009F 5F               [ 4]  249 	ld	e, a
      0000A0 56               [ 8]  250 	ld	d, (hl)
      0000A1 1A               [ 8]  251 	ld	a, (de)
      0000A2 F8 07            [12]  252 	ldhl	sp,	#7
      0000A4 32               [ 8]  253 	ld	(hl-), a
      0000A5 2A               [ 8]  254 	ld	a, (hl+)
      0000A6 96               [ 8]  255 	sub	a, (hl)
      0000A7 28 5B            [12]  256 	jr	Z, 00110$
                                    257 ;spritestructs.h:87: for (uint8_t ix = 0; ix != sprite->spriteWidth; ix++)
      0000A9 F8 07            [12]  258 	ldhl	sp,	#7
      0000AB 36 00            [12]  259 	ld	(hl), #0x00
      0000AD                        260 00105$:
      0000AD D1               [12]  261 	pop	de
      0000AE D5               [16]  262 	push	de
      0000AF 1A               [ 8]  263 	ld	a, (de)
      0000B0 F8 04            [12]  264 	ldhl	sp,	#4
      0000B2 77               [ 8]  265 	ld	(hl), a
      0000B3 F8 07            [12]  266 	ldhl	sp,	#7
      0000B5 7E               [ 8]  267 	ld	a, (hl)
      0000B6 F8 04            [12]  268 	ldhl	sp,	#4
      0000B8 96               [ 8]  269 	sub	a, (hl)
      0000B9 28 44            [12]  270 	jr	Z, 00109$
                                    271 ;spritestructs.h:89: uint8_t index = sprite->spriteID + ix + (iy * sprite->spriteWidth);
      0000BB 0A               [ 8]  272 	ld	a, (bc)
      0000BC F8 07            [12]  273 	ldhl	sp,	#7
      0000BE 86               [ 8]  274 	add	a, (hl)
      0000BF 57               [ 4]  275 	ld	d, a
      0000C0 C5               [16]  276 	push	bc
      0000C1 D5               [16]  277 	push	de
      0000C2 F8 08            [12]  278 	ldhl	sp,	#8
      0000C4 2A               [ 8]  279 	ld	a, (hl+)
      0000C5 23               [ 8]  280 	inc	hl
      0000C6 5F               [ 4]  281 	ld	e, a
      0000C7 7E               [ 8]  282 	ld	a, (hl)
      0000C8 CDr00r00         [24]  283 	call	__muluchar
      0000CB 79               [ 4]  284 	ld	a, c
      0000CC D1               [12]  285 	pop	de
      0000CD C1               [12]  286 	pop	bc
      0000CE 82               [ 4]  287 	add	a, d
      0000CF 5F               [ 4]  288 	ld	e, a
                                    289 ;spritestructs.h:91: move_sprite(index, x + (ix * 8), y + (iy * 8));
      0000D0 F8 06            [12]  290 	ldhl	sp,	#6
      0000D2 7E               [ 8]  291 	ld	a, (hl)
      0000D3 87               [ 4]  292 	add	a, a
      0000D4 87               [ 4]  293 	add	a, a
      0000D5 87               [ 4]  294 	add	a, a
      0000D6 F8 0A            [12]  295 	ldhl	sp,	#10
      0000D8 56               [ 8]  296 	ld	d, (hl)
      0000D9 82               [ 4]  297 	add	a, d
      0000DA 57               [ 4]  298 	ld	d, a
      0000DB F8 07            [12]  299 	ldhl	sp,	#7
      0000DD 3A               [ 8]  300 	ld	a, (hl-)
      0000DE 2B               [ 8]  301 	dec	hl
      0000DF 87               [ 4]  302 	add	a, a
      0000E0 87               [ 4]  303 	add	a, a
      0000E1 87               [ 4]  304 	add	a, a
      0000E2 6E               [ 8]  305 	ld	l, (hl)
                                    306 ;	spillPairReg hl
                                    307 ;	spillPairReg hl
      0000E3 85               [ 4]  308 	add	a, l
      0000E4 F8 04            [12]  309 	ldhl	sp,	#4
      0000E6 77               [ 8]  310 	ld	(hl), a
                                    311 ;c:\gbdk\include\gb\gb.h:1877: OAM_item_t * itm = &shadow_OAM[nb];
      0000E7 26 00            [ 8]  312 	ld	h, #0x00
                                    313 ;	spillPairReg hl
                                    314 ;	spillPairReg hl
      0000E9 6B               [ 4]  315 	ld	l, e
      0000EA 29               [ 8]  316 	add	hl, hl
      0000EB 29               [ 8]  317 	add	hl, hl
      0000EC D5               [16]  318 	push	de
      0000ED 11r00r00         [12]  319 	ld	de, #_shadow_OAM
      0000F0 19               [ 8]  320 	add	hl, de
      0000F1 D1               [12]  321 	pop	de
                                    322 ;c:\gbdk\include\gb\gb.h:1878: itm->y=y, itm->x=x;
      0000F2 7A               [ 4]  323 	ld	a, d
      0000F3 22               [ 8]  324 	ld	(hl+), a
      0000F4 5D               [ 4]  325 	ld	e, l
      0000F5 54               [ 4]  326 	ld	d, h
      0000F6 F8 04            [12]  327 	ldhl	sp,	#4
      0000F8 7E               [ 8]  328 	ld	a, (hl)
      0000F9 12               [ 8]  329 	ld	(de), a
                                    330 ;spritestructs.h:87: for (uint8_t ix = 0; ix != sprite->spriteWidth; ix++)
      0000FA F8 07            [12]  331 	ldhl	sp,	#7
      0000FC 34               [12]  332 	inc	(hl)
      0000FD 18 AE            [12]  333 	jr	00105$
      0000FF                        334 00109$:
                                    335 ;spritestructs.h:85: for (uint8_t iy = 0; iy!= sprite->spriteHeight; iy++)
      0000FF F8 06            [12]  336 	ldhl	sp,	#6
      000101 34               [12]  337 	inc	(hl)
      000102 18 98            [12]  338 	jr	00108$
      000104                        339 00110$:
                                    340 ;spritestructs.h:94: }
      000104 E8 08            [16]  341 	add	sp, #8
      000106 E1               [12]  342 	pop	hl
      000107 33               [ 8]  343 	inc	sp
      000108 E9               [ 4]  344 	jp	(hl)
                                    345 ;spritestructs.h:96: void scrollSprite(Sprite *sprite, uint8_t x, uint8_t y)
                                    346 ;	---------------------------------
                                    347 ; Function scrollSprite
                                    348 ; ---------------------------------
      000109                        349 _scrollSprite::
      000109 3B               [ 8]  350 	dec	sp
      00010A 3B               [ 8]  351 	dec	sp
      00010B F8 01            [12]  352 	ldhl	sp,	#1
      00010D 77               [ 8]  353 	ld	(hl), a
                                    354 ;spritestructs.h:99: sprite->x = x;
      00010E 21 06 00         [12]  355 	ld	hl, #0x0006
      000111 19               [ 8]  356 	add	hl, de
      000112 4D               [ 4]  357 	ld	c, l
      000113 44               [ 4]  358 	ld	b, h
      000114 F8 01            [12]  359 	ldhl	sp,	#1
      000116 7E               [ 8]  360 	ld	a, (hl)
      000117 02               [ 8]  361 	ld	(bc), a
                                    362 ;spritestructs.h:100: sprite->y = y;
      000118 21 07 00         [12]  363 	ld	hl, #0x0007
      00011B 19               [ 8]  364 	add	hl, de
      00011C 4D               [ 4]  365 	ld	c, l
      00011D 44               [ 4]  366 	ld	b, h
      00011E F8 04            [12]  367 	ldhl	sp,	#4
      000120 7E               [ 8]  368 	ld	a, (hl)
      000121 02               [ 8]  369 	ld	(bc), a
                                    370 ;spritestructs.h:106: scroll_sprite(sprite->tilesetStart, x, y);
      000122 7E               [ 8]  371 	ld	a, (hl)
      000123 F8 00            [12]  372 	ldhl	sp,	#0
      000125 77               [ 8]  373 	ld	(hl), a
      000126 21 05 00         [12]  374 	ld	hl, #0x0005
      000129 19               [ 8]  375 	add	hl, de
                                    376 ;c:\gbdk\include\gb\gb.h:1893: OAM_item_t * itm = &shadow_OAM[nb];
      00012A 6E               [ 8]  377 	ld	l, (hl)
                                    378 ;	spillPairReg hl
                                    379 ;	spillPairReg hl
      00012B 26 00            [ 8]  380 	ld	h, #0x00
                                    381 ;	spillPairReg hl
                                    382 ;	spillPairReg hl
      00012D 29               [ 8]  383 	add	hl, hl
      00012E 29               [ 8]  384 	add	hl, hl
      00012F 01r00r00         [12]  385 	ld	bc, #_shadow_OAM
      000132 09               [ 8]  386 	add	hl, bc
      000133 4D               [ 4]  387 	ld	c, l
      000134 44               [ 4]  388 	ld	b, h
                                    389 ;c:\gbdk\include\gb\gb.h:1894: itm->y+=y, itm->x+=x;
      000135 0A               [ 8]  390 	ld	a, (bc)
      000136 F8 00            [12]  391 	ldhl	sp,	#0
      000138 86               [ 8]  392 	add	a, (hl)
      000139 23               [ 8]  393 	inc	hl
      00013A 02               [ 8]  394 	ld	(bc), a
      00013B 03               [ 8]  395 	inc	bc
      00013C 0A               [ 8]  396 	ld	a, (bc)
      00013D 86               [ 8]  397 	add	a, (hl)
                                    398 ;spritestructs.h:113: getSpriteBox(sprite, x, y);
      00013E 2B               [ 8]  399 	dec	hl
      00013F 02               [ 8]  400 	ld	(bc), a
      000140 2A               [ 8]  401 	ld	a, (hl+)
      000141 F5               [16]  402 	push	af
      000142 33               [ 8]  403 	inc	sp
      000143 7E               [ 8]  404 	ld	a, (hl)
                                    405 ;spritestructs.h:118: }
      000144 CDr00r00         [24]  406 	call	_getSpriteBox
      000147 E1               [12]  407 	pop	hl
      000148 E1               [12]  408 	pop	hl
      000149 33               [ 8]  409 	inc	sp
      00014A E9               [ 4]  410 	jp	(hl)
                                    411 ;spritestructs.h:124: void setupSprites(Sprite *sprite, uint8_t spriteID, int8_t spriteHeight, uint8_t spriteWidth, uint8_t spriteFrames, uint8_t tilesetStart, uint8_t x, uint8_t y,
                                    412 ;	---------------------------------
                                    413 ; Function setupSprites
                                    414 ; ---------------------------------
      00014B                        415 _setupSprites::
      00014B E8 FB            [16]  416 	add	sp, #-5
      00014D 4B               [ 4]  417 	ld	c, e
      00014E 42               [ 4]  418 	ld	b, d
      00014F F8 04            [12]  419 	ldhl	sp,	#4
      000151 77               [ 8]  420 	ld	(hl), a
                                    421 ;spritestructs.h:127: sprite->tileset = tileset;
      000152 21 0D 00         [12]  422 	ld	hl, #0x000d
      000155 09               [ 8]  423 	add	hl, bc
      000156 5D               [ 4]  424 	ld	e, l
      000157 54               [ 4]  425 	ld	d, h
      000158 F8 10            [12]  426 	ldhl	sp,	#16
      00015A 2A               [ 8]  427 	ld	a, (hl+)
      00015B 12               [ 8]  428 	ld	(de), a
      00015C 13               [ 8]  429 	inc	de
      00015D 7E               [ 8]  430 	ld	a, (hl)
      00015E 12               [ 8]  431 	ld	(de), a
                                    432 ;spritestructs.h:128: sprite->tilesetStart = tilesetStart;
      00015F 21 05 00         [12]  433 	ld	hl, #0x0005
      000162 09               [ 8]  434 	add	hl, bc
      000163 5D               [ 4]  435 	ld	e, l
      000164 54               [ 4]  436 	ld	d, h
      000165 F8 0A            [12]  437 	ldhl	sp,	#10
      000167 7E               [ 8]  438 	ld	a, (hl)
      000168 12               [ 8]  439 	ld	(de), a
                                    440 ;spritestructs.h:129: sprite->spriteID = spriteID;
      000169 F8 04            [12]  441 	ldhl	sp,	#4
      00016B 7E               [ 8]  442 	ld	a, (hl)
      00016C 02               [ 8]  443 	ld	(bc), a
                                    444 ;spritestructs.h:130: sprite->spriteHeight = spriteHeight;
      00016D 59               [ 4]  445 	ld	e, c
      00016E 50               [ 4]  446 	ld	d, b
      00016F 13               [ 8]  447 	inc	de
      000170 F8 07            [12]  448 	ldhl	sp,	#7
                                    449 ;spritestructs.h:131: sprite->spriteWidth = spriteWidth;
      000172 2A               [ 8]  450 	ld	a, (hl+)
      000173 12               [ 8]  451 	ld	(de), a
      000174 59               [ 4]  452 	ld	e, c
      000175 50               [ 4]  453 	ld	d, b
      000176 13               [ 8]  454 	inc	de
      000177 13               [ 8]  455 	inc	de
                                    456 ;spritestructs.h:132: sprite->spriteFrames = spriteFrames;
      000178 2A               [ 8]  457 	ld	a, (hl+)
      000179 12               [ 8]  458 	ld	(de), a
      00017A 59               [ 4]  459 	ld	e, c
      00017B 50               [ 4]  460 	ld	d, b
      00017C 13               [ 8]  461 	inc	de
      00017D 13               [ 8]  462 	inc	de
      00017E 13               [ 8]  463 	inc	de
      00017F 7E               [ 8]  464 	ld	a, (hl)
      000180 12               [ 8]  465 	ld	(de), a
                                    466 ;spritestructs.h:134: sprite->x = x;
      000181 21 06 00         [12]  467 	ld	hl, #0x0006
      000184 09               [ 8]  468 	add	hl, bc
      000185 5D               [ 4]  469 	ld	e, l
      000186 54               [ 4]  470 	ld	d, h
      000187 F8 0B            [12]  471 	ldhl	sp,	#11
      000189 7E               [ 8]  472 	ld	a, (hl)
      00018A 12               [ 8]  473 	ld	(de), a
                                    474 ;spritestructs.h:135: sprite->y = y;
      00018B 21 07 00         [12]  475 	ld	hl, #0x0007
      00018E 09               [ 8]  476 	add	hl, bc
      00018F 33               [ 8]  477 	inc	sp
      000190 33               [ 8]  478 	inc	sp
      000191 5D               [ 4]  479 	ld	e, l
      000192 54               [ 4]  480 	ld	d, h
      000193 D5               [16]  481 	push	de
      000194 F8 0C            [12]  482 	ldhl	sp,	#12
      000196 7E               [ 8]  483 	ld	a, (hl)
      000197 12               [ 8]  484 	ld	(de), a
                                    485 ;spritestructs.h:136: sprite->velocityX = velocityX;
      000198 21 08 00         [12]  486 	ld	hl, #0x0008
      00019B 09               [ 8]  487 	add	hl, bc
      00019C 5D               [ 4]  488 	ld	e, l
      00019D 54               [ 4]  489 	ld	d, h
      00019E F8 0D            [12]  490 	ldhl	sp,	#13
      0001A0 7E               [ 8]  491 	ld	a, (hl)
      0001A1 12               [ 8]  492 	ld	(de), a
                                    493 ;spritestructs.h:137: sprite->velocityY = velocityY;
      0001A2 21 09 00         [12]  494 	ld	hl, #0x0009
      0001A5 09               [ 8]  495 	add	hl, bc
      0001A6 5D               [ 4]  496 	ld	e, l
      0001A7 54               [ 4]  497 	ld	d, h
      0001A8 F8 0E            [12]  498 	ldhl	sp,	#14
      0001AA 7E               [ 8]  499 	ld	a, (hl)
      0001AB 12               [ 8]  500 	ld	(de), a
                                    501 ;spritestructs.h:138: sprite->Ypos = sprite->y = Ypos;
      0001AC 21 0C 00         [12]  502 	ld	hl, #0x000c
      0001AF 09               [ 8]  503 	add	hl, bc
      0001B0 E5               [16]  504 	push	hl
      0001B1 7D               [ 4]  505 	ld	a, l
      0001B2 F8 04            [12]  506 	ldhl	sp,	#4
      0001B4 77               [ 8]  507 	ld	(hl), a
      0001B5 E1               [12]  508 	pop	hl
      0001B6 7C               [ 4]  509 	ld	a, h
      0001B7 F8 03            [12]  510 	ldhl	sp,	#3
      0001B9 77               [ 8]  511 	ld	(hl), a
      0001BA D1               [12]  512 	pop	de
      0001BB D5               [16]  513 	push	de
      0001BC F8 0F            [12]  514 	ldhl	sp,	#15
      0001BE 7E               [ 8]  515 	ld	a, (hl)
      0001BF 12               [ 8]  516 	ld	(de), a
      0001C0 F8 02            [12]  517 	ldhl	sp,#2
      0001C2 2A               [ 8]  518 	ld	a, (hl+)
      0001C3 5F               [ 4]  519 	ld	e, a
      0001C4 56               [ 8]  520 	ld	d, (hl)
      0001C5 F8 0F            [12]  521 	ldhl	sp,	#15
      0001C7 7E               [ 8]  522 	ld	a, (hl)
      0001C8 12               [ 8]  523 	ld	(de), a
                                    524 ;spritestructs.h:140: LoadSpriteFrame(sprite, 0);
      0001C9 AF               [ 4]  525 	xor	a, a
      0001CA 59               [ 4]  526 	ld	e, c
      0001CB 50               [ 4]  527 	ld	d, b
      0001CC CDr13r00         [24]  528 	call	_LoadSpriteFrame
                                    529 ;spritestructs.h:149: }
      0001CF E8 05            [16]  530 	add	sp, #5
      0001D1 E1               [12]  531 	pop	hl
      0001D2 E8 0B            [16]  532 	add	sp, #11
      0001D4 E9               [ 4]  533 	jp	(hl)
                                    534 ;characterstruct.h:36: void LoadCharacterFrame(Character *character, uint8_t frame)
                                    535 ;	---------------------------------
                                    536 ; Function LoadCharacterFrame
                                    537 ; ---------------------------------
      0001D5                        538 _LoadCharacterFrame::
      0001D5 E8 FC            [16]  539 	add	sp, #-4
      0001D7 4B               [ 4]  540 	ld	c, e
      0001D8 42               [ 4]  541 	ld	b, d
      0001D9 5F               [ 4]  542 	ld	e, a
                                    543 ;characterstruct.h:38: character->charactercurrentFrame = frame;
      0001DA 21 04 00         [12]  544 	ld	hl, #0x0004
      0001DD 09               [ 8]  545 	add	hl, bc
      0001DE 73               [ 8]  546 	ld	(hl), e
                                    547 ;characterstruct.h:40: uint8_t characterCount = character->characterWidth + character->characterHeight;
      0001DF 59               [ 4]  548 	ld	e, c
      0001E0 50               [ 4]  549 	ld	d, b
      0001E1 13               [ 8]  550 	inc	de
      0001E2 13               [ 8]  551 	inc	de
      0001E3 1A               [ 8]  552 	ld	a, (de)
      0001E4 69               [ 4]  553 	ld	l, c
                                    554 ;	spillPairReg hl
                                    555 ;	spillPairReg hl
      0001E5 60               [ 4]  556 	ld	h, b
                                    557 ;	spillPairReg hl
                                    558 ;	spillPairReg hl
      0001E6 23               [ 8]  559 	inc	hl
      0001E7 5E               [ 8]  560 	ld	e, (hl)
      0001E8 83               [ 4]  561 	add	a, e
      0001E9 F8 00            [12]  562 	ldhl	sp,	#0
      0001EB 77               [ 8]  563 	ld	(hl), a
                                    564 ;characterstruct.h:42: for (uint8_t i = 0; i != characterCount; i++)
      0001EC 21 05 00         [12]  565 	ld	hl, #0x0005
      0001EF 09               [ 8]  566 	add	hl, bc
      0001F0 E5               [16]  567 	push	hl
      0001F1 7D               [ 4]  568 	ld	a, l
      0001F2 F8 03            [12]  569 	ldhl	sp,	#3
      0001F4 77               [ 8]  570 	ld	(hl), a
      0001F5 E1               [12]  571 	pop	hl
      0001F6 7C               [ 4]  572 	ld	a, h
      0001F7 F8 02            [12]  573 	ldhl	sp,	#2
      0001F9 22               [ 8]  574 	ld	(hl+), a
      0001FA 36 00            [12]  575 	ld	(hl), #0x00
      0001FC                        576 00104$:
      0001FC F8 00            [12]  577 	ldhl	sp,	#0
      0001FE 7E               [ 8]  578 	ld	a, (hl)
      0001FF F8 03            [12]  579 	ldhl	sp,	#3
      000201 96               [ 8]  580 	sub	a, (hl)
      000202 28 1F            [12]  581 	jr	Z, 00106$
                                    582 ;characterstruct.h:44: set_sprite_tile(character->characterID + i, character->charactertilesetStart + i);
      000204 F8 01            [12]  583 	ldhl	sp,#1
      000206 2A               [ 8]  584 	ld	a, (hl+)
      000207 5F               [ 4]  585 	ld	e, a
      000208 2A               [ 8]  586 	ld	a, (hl+)
      000209 57               [ 4]  587 	ld	d, a
      00020A 1A               [ 8]  588 	ld	a, (de)
      00020B 86               [ 8]  589 	add	a, (hl)
      00020C 5F               [ 4]  590 	ld	e, a
      00020D 0A               [ 8]  591 	ld	a, (bc)
      00020E 86               [ 8]  592 	add	a, (hl)
      00020F 57               [ 4]  593 	ld	d, a
                                    594 ;c:\gbdk\include\gb\gb.h:1804: shadow_OAM[nb].tile=tile;
      000210 26 00            [ 8]  595 	ld	h, #0x00
                                    596 ;	spillPairReg hl
                                    597 ;	spillPairReg hl
      000212 6A               [ 4]  598 	ld	l, d
      000213 29               [ 8]  599 	add	hl, hl
      000214 29               [ 8]  600 	add	hl, hl
      000215 D5               [16]  601 	push	de
      000216 11r00r00         [12]  602 	ld	de, #_shadow_OAM
      000219 19               [ 8]  603 	add	hl, de
      00021A 23               [ 8]  604 	inc	hl
      00021B 23               [ 8]  605 	inc	hl
      00021C D1               [12]  606 	pop	de
      00021D 73               [ 8]  607 	ld	(hl), e
                                    608 ;characterstruct.h:42: for (uint8_t i = 0; i != characterCount; i++)
      00021E F8 03            [12]  609 	ldhl	sp,	#3
      000220 34               [12]  610 	inc	(hl)
      000221 18 D9            [12]  611 	jr	00104$
      000223                        612 00106$:
                                    613 ;characterstruct.h:46: }
      000223 E8 04            [16]  614 	add	sp, #4
      000225 C9               [16]  615 	ret
                                    616 ;characterstruct.h:48: void moveCharacter (Character *character, uint8_t x, uint8_t y)
                                    617 ;	---------------------------------
                                    618 ; Function moveCharacter
                                    619 ; ---------------------------------
      000226                        620 _moveCharacter::
      000226 E8 F8            [16]  621 	add	sp, #-8
      000228 4B               [ 4]  622 	ld	c, e
      000229 42               [ 4]  623 	ld	b, d
      00022A F8 05            [12]  624 	ldhl	sp,	#5
      00022C 77               [ 8]  625 	ld	(hl), a
                                    626 ;characterstruct.h:50: character->characterX = x;
      00022D 21 06 00         [12]  627 	ld	hl, #0x0006
      000230 09               [ 8]  628 	add	hl, bc
      000231 5D               [ 4]  629 	ld	e, l
      000232 54               [ 4]  630 	ld	d, h
      000233 F8 05            [12]  631 	ldhl	sp,	#5
      000235 7E               [ 8]  632 	ld	a, (hl)
      000236 12               [ 8]  633 	ld	(de), a
                                    634 ;characterstruct.h:51: character->characterY = y;
      000237 21 07 00         [12]  635 	ld	hl, #0x0007
      00023A 09               [ 8]  636 	add	hl, bc
      00023B 5D               [ 4]  637 	ld	e, l
      00023C 54               [ 4]  638 	ld	d, h
      00023D F8 0A            [12]  639 	ldhl	sp,	#10
      00023F 7E               [ 8]  640 	ld	a, (hl)
      000240 12               [ 8]  641 	ld	(de), a
                                    642 ;characterstruct.h:53: for (uint8_t iy = 0; iy!= character->characterHeight; iy++)
      000241 21 02 00         [12]  643 	ld	hl, #0x0002
      000244 09               [ 8]  644 	add	hl, bc
      000245 33               [ 8]  645 	inc	sp
      000246 33               [ 8]  646 	inc	sp
      000247 E5               [16]  647 	push	hl
      000248 69               [ 4]  648 	ld	l, c
      000249 60               [ 4]  649 	ld	h, b
      00024A 23               [ 8]  650 	inc	hl
      00024B E5               [16]  651 	push	hl
      00024C 7D               [ 4]  652 	ld	a, l
      00024D F8 04            [12]  653 	ldhl	sp,	#4
      00024F 77               [ 8]  654 	ld	(hl), a
      000250 E1               [12]  655 	pop	hl
      000251 7C               [ 4]  656 	ld	a, h
      000252 F8 03            [12]  657 	ldhl	sp,	#3
      000254 77               [ 8]  658 	ld	(hl), a
      000255 F8 06            [12]  659 	ldhl	sp,	#6
      000257 36 00            [12]  660 	ld	(hl), #0x00
      000259                        661 00108$:
      000259 F8 02            [12]  662 	ldhl	sp,#2
      00025B 2A               [ 8]  663 	ld	a, (hl+)
      00025C 5F               [ 4]  664 	ld	e, a
      00025D 56               [ 8]  665 	ld	d, (hl)
      00025E 1A               [ 8]  666 	ld	a, (de)
      00025F F8 07            [12]  667 	ldhl	sp,	#7
      000261 32               [ 8]  668 	ld	(hl-), a
      000262 2A               [ 8]  669 	ld	a, (hl+)
      000263 96               [ 8]  670 	sub	a, (hl)
      000264 28 5B            [12]  671 	jr	Z, 00110$
                                    672 ;characterstruct.h:55: for (uint8_t ix = 0; ix != character->characterWidth; ix++)
      000266 F8 07            [12]  673 	ldhl	sp,	#7
      000268 36 00            [12]  674 	ld	(hl), #0x00
      00026A                        675 00105$:
      00026A D1               [12]  676 	pop	de
      00026B D5               [16]  677 	push	de
      00026C 1A               [ 8]  678 	ld	a, (de)
      00026D F8 04            [12]  679 	ldhl	sp,	#4
      00026F 77               [ 8]  680 	ld	(hl), a
      000270 F8 07            [12]  681 	ldhl	sp,	#7
      000272 7E               [ 8]  682 	ld	a, (hl)
      000273 F8 04            [12]  683 	ldhl	sp,	#4
      000275 96               [ 8]  684 	sub	a, (hl)
      000276 28 44            [12]  685 	jr	Z, 00109$
                                    686 ;characterstruct.h:57: uint8_t index = character->characterID + ix + (iy * character->characterWidth);
      000278 0A               [ 8]  687 	ld	a, (bc)
      000279 F8 07            [12]  688 	ldhl	sp,	#7
      00027B 86               [ 8]  689 	add	a, (hl)
      00027C 57               [ 4]  690 	ld	d, a
      00027D C5               [16]  691 	push	bc
      00027E D5               [16]  692 	push	de
      00027F F8 08            [12]  693 	ldhl	sp,	#8
      000281 2A               [ 8]  694 	ld	a, (hl+)
      000282 23               [ 8]  695 	inc	hl
      000283 5F               [ 4]  696 	ld	e, a
      000284 7E               [ 8]  697 	ld	a, (hl)
      000285 CDr00r00         [24]  698 	call	__muluchar
      000288 79               [ 4]  699 	ld	a, c
      000289 D1               [12]  700 	pop	de
      00028A C1               [12]  701 	pop	bc
      00028B 82               [ 4]  702 	add	a, d
      00028C 5F               [ 4]  703 	ld	e, a
                                    704 ;characterstruct.h:59: move_sprite(index, x + (ix * 8), y + (iy * 8));
      00028D F8 06            [12]  705 	ldhl	sp,	#6
      00028F 7E               [ 8]  706 	ld	a, (hl)
      000290 87               [ 4]  707 	add	a, a
      000291 87               [ 4]  708 	add	a, a
      000292 87               [ 4]  709 	add	a, a
      000293 F8 0A            [12]  710 	ldhl	sp,	#10
      000295 56               [ 8]  711 	ld	d, (hl)
      000296 82               [ 4]  712 	add	a, d
      000297 57               [ 4]  713 	ld	d, a
      000298 F8 07            [12]  714 	ldhl	sp,	#7
      00029A 3A               [ 8]  715 	ld	a, (hl-)
      00029B 2B               [ 8]  716 	dec	hl
      00029C 87               [ 4]  717 	add	a, a
      00029D 87               [ 4]  718 	add	a, a
      00029E 87               [ 4]  719 	add	a, a
      00029F 6E               [ 8]  720 	ld	l, (hl)
                                    721 ;	spillPairReg hl
                                    722 ;	spillPairReg hl
      0002A0 85               [ 4]  723 	add	a, l
      0002A1 F8 04            [12]  724 	ldhl	sp,	#4
      0002A3 77               [ 8]  725 	ld	(hl), a
                                    726 ;c:\gbdk\include\gb\gb.h:1877: OAM_item_t * itm = &shadow_OAM[nb];
      0002A4 26 00            [ 8]  727 	ld	h, #0x00
                                    728 ;	spillPairReg hl
                                    729 ;	spillPairReg hl
      0002A6 6B               [ 4]  730 	ld	l, e
      0002A7 29               [ 8]  731 	add	hl, hl
      0002A8 29               [ 8]  732 	add	hl, hl
      0002A9 D5               [16]  733 	push	de
      0002AA 11r00r00         [12]  734 	ld	de, #_shadow_OAM
      0002AD 19               [ 8]  735 	add	hl, de
      0002AE D1               [12]  736 	pop	de
                                    737 ;c:\gbdk\include\gb\gb.h:1878: itm->y=y, itm->x=x;
      0002AF 7A               [ 4]  738 	ld	a, d
      0002B0 22               [ 8]  739 	ld	(hl+), a
      0002B1 5D               [ 4]  740 	ld	e, l
      0002B2 54               [ 4]  741 	ld	d, h
      0002B3 F8 04            [12]  742 	ldhl	sp,	#4
      0002B5 7E               [ 8]  743 	ld	a, (hl)
      0002B6 12               [ 8]  744 	ld	(de), a
                                    745 ;characterstruct.h:55: for (uint8_t ix = 0; ix != character->characterWidth; ix++)
      0002B7 F8 07            [12]  746 	ldhl	sp,	#7
      0002B9 34               [12]  747 	inc	(hl)
      0002BA 18 AE            [12]  748 	jr	00105$
      0002BC                        749 00109$:
                                    750 ;characterstruct.h:53: for (uint8_t iy = 0; iy!= character->characterHeight; iy++)
      0002BC F8 06            [12]  751 	ldhl	sp,	#6
      0002BE 34               [12]  752 	inc	(hl)
      0002BF 18 98            [12]  753 	jr	00108$
      0002C1                        754 00110$:
                                    755 ;characterstruct.h:62: }
      0002C1 E8 08            [16]  756 	add	sp, #8
      0002C3 E1               [12]  757 	pop	hl
      0002C4 33               [ 8]  758 	inc	sp
      0002C5 E9               [ 4]  759 	jp	(hl)
                                    760 ;characterstruct.h:70: void setupCharacter(Character *character, uint8_t characterID, int8_t characterHeight, uint8_t characterWidth, uint8_t characterFrames, uint8_t charactertilesetStart, uint8_t characterX, uint8_t characterY,
                                    761 ;	---------------------------------
                                    762 ; Function setupCharacter
                                    763 ; ---------------------------------
      0002C6                        764 _setupCharacter::
      0002C6 3B               [ 8]  765 	dec	sp
      0002C7 F8 00            [12]  766 	ldhl	sp,	#0
      0002C9 77               [ 8]  767 	ld	(hl), a
                                    768 ;characterstruct.h:73: character->charactertileset = charactertileset;
      0002CA 21 0A 00         [12]  769 	ld	hl, #0x000a
      0002CD 19               [ 8]  770 	add	hl, de
      0002CE 4D               [ 4]  771 	ld	c, l
      0002CF 44               [ 4]  772 	ld	b, h
      0002D0 F8 0B            [12]  773 	ldhl	sp,	#11
      0002D2 2A               [ 8]  774 	ld	a, (hl+)
      0002D3 02               [ 8]  775 	ld	(bc), a
      0002D4 03               [ 8]  776 	inc	bc
      0002D5 7E               [ 8]  777 	ld	a, (hl)
      0002D6 02               [ 8]  778 	ld	(bc), a
                                    779 ;characterstruct.h:74: character->charactertilesetStart = charactertilesetStart;
      0002D7 21 05 00         [12]  780 	ld	hl, #0x0005
      0002DA 19               [ 8]  781 	add	hl, de
      0002DB 4D               [ 4]  782 	ld	c, l
      0002DC 44               [ 4]  783 	ld	b, h
      0002DD F8 06            [12]  784 	ldhl	sp,	#6
      0002DF 7E               [ 8]  785 	ld	a, (hl)
      0002E0 02               [ 8]  786 	ld	(bc), a
                                    787 ;characterstruct.h:75: character->characterID = characterID;
      0002E1 F8 00            [12]  788 	ldhl	sp,	#0
      0002E3 7E               [ 8]  789 	ld	a, (hl)
      0002E4 12               [ 8]  790 	ld	(de), a
                                    791 ;characterstruct.h:76: character->characterHeight = characterHeight;
      0002E5 4B               [ 4]  792 	ld	c, e
      0002E6 42               [ 4]  793 	ld	b, d
      0002E7 03               [ 8]  794 	inc	bc
      0002E8 F8 03            [12]  795 	ldhl	sp,	#3
                                    796 ;characterstruct.h:77: character->characterWidth = characterWidth;
      0002EA 2A               [ 8]  797 	ld	a, (hl+)
      0002EB 02               [ 8]  798 	ld	(bc), a
      0002EC 4B               [ 4]  799 	ld	c, e
      0002ED 42               [ 4]  800 	ld	b, d
      0002EE 03               [ 8]  801 	inc	bc
      0002EF 03               [ 8]  802 	inc	bc
                                    803 ;characterstruct.h:78: character->characterFrames = characterFrames;
      0002F0 2A               [ 8]  804 	ld	a, (hl+)
      0002F1 02               [ 8]  805 	ld	(bc), a
      0002F2 4B               [ 4]  806 	ld	c, e
      0002F3 42               [ 4]  807 	ld	b, d
      0002F4 03               [ 8]  808 	inc	bc
      0002F5 03               [ 8]  809 	inc	bc
      0002F6 03               [ 8]  810 	inc	bc
      0002F7 7E               [ 8]  811 	ld	a, (hl)
      0002F8 02               [ 8]  812 	ld	(bc), a
                                    813 ;characterstruct.h:80: character->characterX = characterX;
      0002F9 21 06 00         [12]  814 	ld	hl, #0x0006
      0002FC 19               [ 8]  815 	add	hl, de
      0002FD 4D               [ 4]  816 	ld	c, l
      0002FE 44               [ 4]  817 	ld	b, h
      0002FF F8 07            [12]  818 	ldhl	sp,	#7
      000301 7E               [ 8]  819 	ld	a, (hl)
      000302 02               [ 8]  820 	ld	(bc), a
                                    821 ;characterstruct.h:81: character->characterY = characterY;
      000303 21 07 00         [12]  822 	ld	hl, #0x0007
      000306 19               [ 8]  823 	add	hl, de
      000307 4D               [ 4]  824 	ld	c, l
      000308 44               [ 4]  825 	ld	b, h
      000309 F8 08            [12]  826 	ldhl	sp,	#8
      00030B 7E               [ 8]  827 	ld	a, (hl)
      00030C 02               [ 8]  828 	ld	(bc), a
                                    829 ;characterstruct.h:82: character->charactervelocityX = charactervelocityX;
      00030D 21 08 00         [12]  830 	ld	hl, #0x0008
      000310 19               [ 8]  831 	add	hl, de
      000311 4D               [ 4]  832 	ld	c, l
      000312 44               [ 4]  833 	ld	b, h
      000313 F8 09            [12]  834 	ldhl	sp,	#9
      000315 7E               [ 8]  835 	ld	a, (hl)
      000316 02               [ 8]  836 	ld	(bc), a
                                    837 ;characterstruct.h:83: character->charactervelocityY = charactervelocityY;
      000317 21 09 00         [12]  838 	ld	hl, #0x0009
      00031A 19               [ 8]  839 	add	hl, de
      00031B 4D               [ 4]  840 	ld	c, l
      00031C 44               [ 4]  841 	ld	b, h
      00031D F8 0A            [12]  842 	ldhl	sp,	#10
      00031F 7E               [ 8]  843 	ld	a, (hl)
      000320 02               [ 8]  844 	ld	(bc), a
                                    845 ;characterstruct.h:85: LoadCharacterFrame(character, 0);
      000321 AF               [ 4]  846 	xor	a, a
      000322 CDrD5r01         [24]  847 	call	_LoadCharacterFrame
                                    848 ;characterstruct.h:92: }
      000325 33               [ 8]  849 	inc	sp
      000326 E1               [12]  850 	pop	hl
      000327 E8 0A            [16]  851 	add	sp, #10
      000329 E9               [ 4]  852 	jp	(hl)
                                    853 ;main.c:26: void setBackground(void){
                                    854 ;	---------------------------------
                                    855 ; Function setBackground
                                    856 ; ---------------------------------
      00032A                        857 _setBackground::
                                    858 ;main.c:28: set_bkg_data(0, 18, BackgroundTiles);
      00032A 11r68r01         [12]  859 	ld	de, #_BackgroundTiles
      00032D D5               [16]  860 	push	de
      00032E 21 00 12         [12]  861 	ld	hl, #0x1200
      000331 E5               [16]  862 	push	hl
      000332 CDr00r00         [24]  863 	call	_set_bkg_data
      000335 E8 04            [16]  864 	add	sp, #4
                                    865 ;main.c:29: set_bkg_tiles(0, 0, 20, 18, backgroundmap);
      000337 11r00r00         [12]  866 	ld	de, #_backgroundmap
      00033A D5               [16]  867 	push	de
      00033B 21 14 12         [12]  868 	ld	hl, #0x1214
      00033E E5               [16]  869 	push	hl
      00033F AF               [ 4]  870 	xor	a, a
      000340 0F               [ 4]  871 	rrca
      000341 F5               [16]  872 	push	af
      000342 CDr00r00         [24]  873 	call	_set_bkg_tiles
      000345 E8 06            [16]  874 	add	sp, #6
                                    875 ;main.c:32: }
      000347 C9               [16]  876 	ret
                                    877 ;main.c:34: void loadSprites(void)
                                    878 ;	---------------------------------
                                    879 ; Function loadSprites
                                    880 ; ---------------------------------
      000348                        881 _loadSprites::
                                    882 ;main.c:36: set_sprite_data(0, 1, Wine);
      000348 11rD8r02         [12]  883 	ld	de, #_Wine
      00034B D5               [16]  884 	push	de
      00034C AF               [ 4]  885 	xor	a, a
      00034D 3C               [ 4]  886 	inc	a
      00034E F5               [16]  887 	push	af
      00034F CDr00r00         [24]  888 	call	_set_sprite_data
      000352 E8 04            [16]  889 	add	sp, #4
                                    890 ;main.c:37: set_sprite_data(1, 4, Bartender);
      000354 11r98r02         [12]  891 	ld	de, #_Bartender
      000357 D5               [16]  892 	push	de
      000358 21 01 04         [12]  893 	ld	hl, #0x401
      00035B E5               [16]  894 	push	hl
      00035C CDr00r00         [24]  895 	call	_set_sprite_data
      00035F E8 04            [16]  896 	add	sp, #4
                                    897 ;main.c:40: }
      000361 C9               [16]  898 	ret
                                    899 ;main.c:42: void playerMovement(Character *character)
                                    900 ;	---------------------------------
                                    901 ; Function playerMovement
                                    902 ; ---------------------------------
      000362                        903 _playerMovement::
      000362 E8 FD            [16]  904 	add	sp, #-3
                                    905 ;main.c:46: int8_t moveX = 0;
      000364 0E 00            [ 8]  906 	ld	c, #0x00
                                    907 ;main.c:47: uint8_t buttons = joypad();
      000366 D5               [16]  908 	push	de
      000367 CDr00r00         [24]  909 	call	_joypad
      00036A 47               [ 4]  910 	ld	b, a
      00036B D1               [12]  911 	pop	de
                                    912 ;main.c:52: uint8_t characterCount = character->characterWidth + character->characterHeight;
      00036C 6B               [ 4]  913 	ld	l, e
                                    914 ;	spillPairReg hl
                                    915 ;	spillPairReg hl
      00036D 62               [ 4]  916 	ld	h, d
                                    917 ;	spillPairReg hl
                                    918 ;	spillPairReg hl
      00036E 23               [ 8]  919 	inc	hl
      00036F 23               [ 8]  920 	inc	hl
      000370 7E               [ 8]  921 	ld	a, (hl)
      000371 6B               [ 4]  922 	ld	l, e
                                    923 ;	spillPairReg hl
                                    924 ;	spillPairReg hl
      000372 62               [ 4]  925 	ld	h, d
                                    926 ;	spillPairReg hl
                                    927 ;	spillPairReg hl
      000373 23               [ 8]  928 	inc	hl
      000374 6E               [ 8]  929 	ld	l, (hl)
                                    930 ;	spillPairReg hl
      000375 85               [ 4]  931 	add	a, l
      000376 F8 00            [12]  932 	ldhl	sp,	#0
      000378 77               [ 8]  933 	ld	(hl), a
                                    934 ;main.c:55: if (buttons & J_LEFT){
      000379 CB 48            [ 8]  935 	bit	1, b
      00037B 28 07            [12]  936 	jr	Z, 00102$
                                    937 ;main.c:56: moveX = -1;
      00037D 0E FF            [ 8]  938 	ld	c, #0xff
                                    939 ;main.c:57: characterXpos = characterXpos -1;
      00037F 21rEAr02         [12]  940 	ld	hl, #_characterXpos
      000382 35               [12]  941 	dec	(hl)
      000383 7E               [ 8]  942 	ld	a, (hl)
      000384                        943 00102$:
                                    944 ;main.c:60: if (buttons & J_RIGHT){
      000384 CB 40            [ 8]  945 	bit	0, b
      000386 28 07            [12]  946 	jr	Z, 00115$
                                    947 ;main.c:61: moveX = 1;
      000388 0E 01            [ 8]  948 	ld	c, #0x01
                                    949 ;main.c:62: characterXpos = characterXpos +1;
      00038A 21rEAr02         [12]  950 	ld	hl, #_characterXpos
      00038D 34               [12]  951 	inc	(hl)
      00038E 7E               [ 8]  952 	ld	a, (hl)
                                    953 ;main.c:65: for (uint8_t i = 0; i != characterCount; i++)
      00038F                        954 00115$:
      00038F 21 05 00         [12]  955 	ld	hl, #0x0005
      000392 19               [ 8]  956 	add	hl, de
      000393 E5               [16]  957 	push	hl
      000394 7D               [ 4]  958 	ld	a, l
      000395 F8 03            [12]  959 	ldhl	sp,	#3
      000397 77               [ 8]  960 	ld	(hl), a
      000398 E1               [12]  961 	pop	hl
      000399 7C               [ 4]  962 	ld	a, h
      00039A F8 02            [12]  963 	ldhl	sp,	#2
      00039C 77               [ 8]  964 	ld	(hl), a
      00039D 06 00            [ 8]  965 	ld	b, #0x00
      00039F                        966 00108$:
      00039F F8 00            [12]  967 	ldhl	sp,	#0
      0003A1 7E               [ 8]  968 	ld	a, (hl)
      0003A2 90               [ 4]  969 	sub	a, b
      0003A3 28 18            [12]  970 	jr	Z, 00110$
                                    971 ;main.c:67: scroll_sprite(character->charactertilesetStart + i, moveX, 0);
      0003A5 F8 01            [12]  972 	ldhl	sp,#1
      0003A7 2A               [ 8]  973 	ld	a, (hl+)
      0003A8 5F               [ 4]  974 	ld	e, a
      0003A9 56               [ 8]  975 	ld	d, (hl)
      0003AA 1A               [ 8]  976 	ld	a, (de)
      0003AB 80               [ 4]  977 	add	a, b
                                    978 ;c:\gbdk\include\gb\gb.h:1893: OAM_item_t * itm = &shadow_OAM[nb];
      0003AC 6F               [ 4]  979 	ld	l, a
                                    980 ;	spillPairReg hl
                                    981 ;	spillPairReg hl
      0003AD 26 00            [ 8]  982 	ld	h, #0x00
                                    983 ;	spillPairReg hl
                                    984 ;	spillPairReg hl
      0003AF 29               [ 8]  985 	add	hl, hl
      0003B0 29               [ 8]  986 	add	hl, hl
      0003B1 11r00r00         [12]  987 	ld	de, #_shadow_OAM
      0003B4 19               [ 8]  988 	add	hl, de
                                    989 ;c:\gbdk\include\gb\gb.h:1894: itm->y+=y, itm->x+=x;
      0003B5 7E               [ 8]  990 	ld	a, (hl)
      0003B6 22               [ 8]  991 	ld	(hl+), a
      0003B7 7E               [ 8]  992 	ld	a, (hl)
      0003B8 81               [ 4]  993 	add	a, c
      0003B9 77               [ 8]  994 	ld	(hl), a
                                    995 ;main.c:65: for (uint8_t i = 0; i != characterCount; i++)
      0003BA 04               [ 4]  996 	inc	b
      0003BB 18 E2            [12]  997 	jr	00108$
      0003BD                        998 00110$:
                                    999 ;main.c:69: }
      0003BD E8 03            [16] 1000 	add	sp, #3
      0003BF C9               [16] 1001 	ret
                                   1002 ;main.c:83: void main(void)
                                   1003 ;	---------------------------------
                                   1004 ; Function main
                                   1005 ; ---------------------------------
      0003C0                       1006 _main::
      0003C0 3B               [ 8] 1007 	dec	sp
                                   1008 ;main.c:88: SHOW_BKG;
      0003C1 F0r00            [12] 1009 	ldh	a, (_LCDC_REG + 0)
      0003C3 F6 01            [ 8] 1010 	or	a, #0x01
      0003C5 E0r00            [12] 1011 	ldh	(_LCDC_REG + 0), a
                                   1012 ;main.c:89: SHOW_SPRITES;
      0003C7 F0r00            [12] 1013 	ldh	a, (_LCDC_REG + 0)
      0003C9 F6 02            [ 8] 1014 	or	a, #0x02
      0003CB E0r00            [12] 1015 	ldh	(_LCDC_REG + 0), a
                                   1016 ;main.c:91: setBackground();
      0003CD CDr2Ar03         [24] 1017 	call	_setBackground
                                   1018 ;main.c:92: loadSprites();
      0003D0 CDr48r03         [24] 1019 	call	_loadSprites
                                   1020 ;main.c:94: setupCharacter(&bartender, 1, 2, 2, 4, 1, 1, 1, 0, 0, Bartender);
      0003D3 11r98r02         [12] 1021 	ld	de, #_Bartender
      0003D6 D5               [16] 1022 	push	de
      0003D7 AF               [ 4] 1023 	xor	a, a
      0003D8 0F               [ 4] 1024 	rrca
      0003D9 F5               [16] 1025 	push	af
      0003DA 21 01 01         [12] 1026 	ld	hl, #0x101
      0003DD E5               [16] 1027 	push	hl
      0003DE 21 04 01         [12] 1028 	ld	hl, #0x104
      0003E1 E5               [16] 1029 	push	hl
      0003E2 21 02 02         [12] 1030 	ld	hl, #0x202
      0003E5 E5               [16] 1031 	push	hl
      0003E6 3E 01            [ 8] 1032 	ld	a, #0x01
      0003E8 11r0Fr00         [12] 1033 	ld	de, #_bartender
      0003EB CDrC6r02         [24] 1034 	call	_setupCharacter
                                   1035 ;main.c:95: setupSprites(&wineglass, 0, 1, 1, 1, 0, 1, 1, 0, 0, 0, Wine);
      0003EE 11rD8r02         [12] 1036 	ld	de, #_Wine
      0003F1 D5               [16] 1037 	push	de
      0003F2 AF               [ 4] 1038 	xor	a, a
      0003F3 0F               [ 4] 1039 	rrca
      0003F4 F5               [16] 1040 	push	af
      0003F5 AF               [ 4] 1041 	xor	a, a
      0003F6 67               [ 4] 1042 	ld	h, a
      0003F7 2E 01            [ 8] 1043 	ld	l, #0x01
      0003F9 E5               [16] 1044 	push	hl
      0003FA 3E 01            [ 8] 1045 	ld	a, #0x01
      0003FC F5               [16] 1046 	push	af
      0003FD 33               [ 8] 1047 	inc	sp
      0003FE 21 01 00         [12] 1048 	ld	hl, #0x01
      000401 E5               [16] 1049 	push	hl
      000402 21 01 01         [12] 1050 	ld	hl, #0x101
      000405 E5               [16] 1051 	push	hl
      000406 AF               [ 4] 1052 	xor	a, a
      000407 11r00r00         [12] 1053 	ld	de, #_wineglass
      00040A CDr4Br01         [24] 1054 	call	_setupSprites
                                   1055 ;main.c:98: moveSprite(&wineglass, 20, 0);
      00040D AF               [ 4] 1056 	xor	a, a
      00040E F5               [16] 1057 	push	af
      00040F 33               [ 8] 1058 	inc	sp
      000410 3E 14            [ 8] 1059 	ld	a, #0x14
      000412 11r00r00         [12] 1060 	ld	de, #_wineglass
      000415 CDr69r00         [24] 1061 	call	_moveSprite
                                   1062 ;main.c:99: moveCharacter(&bartender, 80, 140);
      000418 3E 8C            [ 8] 1063 	ld	a, #0x8c
      00041A F5               [16] 1064 	push	af
      00041B 33               [ 8] 1065 	inc	sp
      00041C 3E 50            [ 8] 1066 	ld	a, #0x50
      00041E 11r0Fr00         [12] 1067 	ld	de, #_bartender
      000421 CDr26r02         [24] 1068 	call	_moveCharacter
                                   1069 ;main.c:102: while (1) {
      000424                       1070 00131$:
                                   1071 ;main.c:104: playerMovement(&bartender);
      000424 11r0Fr00         [12] 1072 	ld	de, #_bartender
      000427 CDr62r03         [24] 1073 	call	_playerMovement
                                   1074 ;main.c:107: scrollSprite(&wineglass, 0, 1);
      00042A 3E 01            [ 8] 1075 	ld	a, #0x01
      00042C F5               [16] 1076 	push	af
      00042D 33               [ 8] 1077 	inc	sp
      00042E AF               [ 4] 1078 	xor	a, a
      00042F 11r00r00         [12] 1079 	ld	de, #_wineglass
      000432 CDr09r01         [24] 1080 	call	_scrollSprite
                                   1081 ;main.c:108: spriteYpos++;
      000435 21rE8r02         [12] 1082 	ld	hl, #_spriteYpos
      000438 34               [12] 1083 	inc	(hl)
                                   1084 ;main.c:109: if(spriteYpos == characterYpos && spriteXpos == characterXpos || spriteYpos ==  characterYpos && spriteXpos == characterXpos + 1 ||spriteYpos ==  characterYpos && spriteXpos == characterXpos + 10 || spriteYpos ==  characterYpos && spriteXpos == characterXpos + 9 || spriteYpos ==  characterYpos && spriteXpos == characterXpos + 8 || spriteYpos ==  characterYpos && spriteXpos == characterXpos + 7 || spriteYpos ==  characterYpos && spriteXpos == characterXpos + 5 || spriteYpos ==  characterYpos && spriteXpos == characterXpos + 4 || spriteYpos ==  characterYpos && spriteXpos == characterXpos + 6 || spriteYpos ==  characterYpos && spriteXpos == characterXpos + 2 || spriteYpos ==  characterYpos && spriteXpos == characterXpos + 3 || spriteYpos ==  characterYpos && spriteXpos == characterXpos - 1 || spriteYpos ==  characterYpos && spriteXpos == characterXpos - 2 || spriteYpos ==  characterYpos && spriteXpos == characterXpos - 3){
      000439 7E               [ 8] 1085 	ld	a, (hl)
      00043A 21rE9r02         [12] 1086 	ld	hl, #_characterYpos
      00043D 96               [ 8] 1087 	sub	a, (hl)
      00043E 3E 01            [ 8] 1088 	ld	a, #0x01
      000440 28 01            [12] 1089 	jr	Z, 00241$
      000442 AF               [ 4] 1090 	xor	a, a
      000443                       1091 00241$:
      000443 F8 00            [12] 1092 	ldhl	sp,	#0
      000445 77               [ 8] 1093 	ld	(hl), a
      000446 7E               [ 8] 1094 	ld	a, (hl)
      000447 B7               [ 4] 1095 	or	a, a
      000448 28 0A            [12] 1096 	jr	Z, 00105$
      00044A FArEBr02         [16] 1097 	ld	a, (#_spriteXpos)
      00044D 21rEAr02         [12] 1098 	ld	hl, #_characterXpos
      000450 96               [ 8] 1099 	sub	a, (hl)
      000451 CAr53r05         [16] 1100 	jp	Z,00101$
      000454                       1101 00105$:
      000454 21rEAr02         [12] 1102 	ld	hl, #_characterXpos
      000457 4E               [ 8] 1103 	ld	c, (hl)
      000458 06 00            [ 8] 1104 	ld	b, #0x00
      00045A 21rEBr02         [12] 1105 	ld	hl, #_spriteXpos
      00045D 5E               [ 8] 1106 	ld	e, (hl)
      00045E 16 00            [ 8] 1107 	ld	d, #0x00
      000460 F8 00            [12] 1108 	ldhl	sp,	#0
      000462 7E               [ 8] 1109 	ld	a, (hl)
      000463 B7               [ 4] 1110 	or	a, a
      000464 28 0C            [12] 1111 	jr	Z, 00107$
      000466 69               [ 4] 1112 	ld	l, c
                                   1113 ;	spillPairReg hl
                                   1114 ;	spillPairReg hl
      000467 60               [ 4] 1115 	ld	h, b
                                   1116 ;	spillPairReg hl
                                   1117 ;	spillPairReg hl
      000468 23               [ 8] 1118 	inc	hl
      000469 7D               [ 4] 1119 	ld	a, l
      00046A 93               [ 4] 1120 	sub	a, e
      00046B 20 05            [12] 1121 	jr	NZ, 00243$
      00046D 7C               [ 4] 1122 	ld	a, h
      00046E 92               [ 4] 1123 	sub	a, d
      00046F CAr53r05         [16] 1124 	jp	Z,00101$
      000472                       1125 00243$:
      000472                       1126 00107$:
      000472 F8 00            [12] 1127 	ldhl	sp,	#0
      000474 7E               [ 8] 1128 	ld	a, (hl)
      000475 B7               [ 4] 1129 	or	a, a
      000476 28 0D            [12] 1130 	jr	Z, 00109$
      000478 21 0A 00         [12] 1131 	ld	hl, #0x000a
      00047B 09               [ 8] 1132 	add	hl, bc
      00047C 7D               [ 4] 1133 	ld	a, l
      00047D 93               [ 4] 1134 	sub	a, e
      00047E 20 05            [12] 1135 	jr	NZ, 00244$
      000480 7C               [ 4] 1136 	ld	a, h
      000481 92               [ 4] 1137 	sub	a, d
      000482 CAr53r05         [16] 1138 	jp	Z,00101$
      000485                       1139 00244$:
      000485                       1140 00109$:
      000485 F8 00            [12] 1141 	ldhl	sp,	#0
      000487 7E               [ 8] 1142 	ld	a, (hl)
      000488 B7               [ 4] 1143 	or	a, a
      000489 28 0D            [12] 1144 	jr	Z, 00111$
      00048B 21 09 00         [12] 1145 	ld	hl, #0x0009
      00048E 09               [ 8] 1146 	add	hl, bc
      00048F 7D               [ 4] 1147 	ld	a, l
      000490 93               [ 4] 1148 	sub	a, e
      000491 20 05            [12] 1149 	jr	NZ, 00245$
      000493 7C               [ 4] 1150 	ld	a, h
      000494 92               [ 4] 1151 	sub	a, d
      000495 CAr53r05         [16] 1152 	jp	Z,00101$
      000498                       1153 00245$:
      000498                       1154 00111$:
      000498 F8 00            [12] 1155 	ldhl	sp,	#0
      00049A 7E               [ 8] 1156 	ld	a, (hl)
      00049B B7               [ 4] 1157 	or	a, a
      00049C 28 0D            [12] 1158 	jr	Z, 00113$
      00049E 21 08 00         [12] 1159 	ld	hl, #0x0008
      0004A1 09               [ 8] 1160 	add	hl, bc
      0004A2 7D               [ 4] 1161 	ld	a, l
      0004A3 93               [ 4] 1162 	sub	a, e
      0004A4 20 05            [12] 1163 	jr	NZ, 00246$
      0004A6 7C               [ 4] 1164 	ld	a, h
      0004A7 92               [ 4] 1165 	sub	a, d
      0004A8 CAr53r05         [16] 1166 	jp	Z,00101$
      0004AB                       1167 00246$:
      0004AB                       1168 00113$:
      0004AB F8 00            [12] 1169 	ldhl	sp,	#0
      0004AD 7E               [ 8] 1170 	ld	a, (hl)
      0004AE B7               [ 4] 1171 	or	a, a
      0004AF 28 0D            [12] 1172 	jr	Z, 00115$
      0004B1 21 07 00         [12] 1173 	ld	hl, #0x0007
      0004B4 09               [ 8] 1174 	add	hl, bc
      0004B5 7D               [ 4] 1175 	ld	a, l
      0004B6 93               [ 4] 1176 	sub	a, e
      0004B7 20 05            [12] 1177 	jr	NZ, 00247$
      0004B9 7C               [ 4] 1178 	ld	a, h
      0004BA 92               [ 4] 1179 	sub	a, d
      0004BB CAr53r05         [16] 1180 	jp	Z,00101$
      0004BE                       1181 00247$:
      0004BE                       1182 00115$:
      0004BE F8 00            [12] 1183 	ldhl	sp,	#0
      0004C0 7E               [ 8] 1184 	ld	a, (hl)
      0004C1 B7               [ 4] 1185 	or	a, a
      0004C2 28 0D            [12] 1186 	jr	Z, 00117$
      0004C4 21 05 00         [12] 1187 	ld	hl, #0x0005
      0004C7 09               [ 8] 1188 	add	hl, bc
      0004C8 7D               [ 4] 1189 	ld	a, l
      0004C9 93               [ 4] 1190 	sub	a, e
      0004CA 20 05            [12] 1191 	jr	NZ, 00248$
      0004CC 7C               [ 4] 1192 	ld	a, h
      0004CD 92               [ 4] 1193 	sub	a, d
      0004CE CAr53r05         [16] 1194 	jp	Z,00101$
      0004D1                       1195 00248$:
      0004D1                       1196 00117$:
      0004D1 F8 00            [12] 1197 	ldhl	sp,	#0
      0004D3 7E               [ 8] 1198 	ld	a, (hl)
      0004D4 B7               [ 4] 1199 	or	a, a
      0004D5 28 0C            [12] 1200 	jr	Z, 00119$
      0004D7 21 04 00         [12] 1201 	ld	hl, #0x0004
      0004DA 09               [ 8] 1202 	add	hl, bc
      0004DB 7D               [ 4] 1203 	ld	a, l
      0004DC 93               [ 4] 1204 	sub	a, e
      0004DD 20 04            [12] 1205 	jr	NZ, 00249$
      0004DF 7C               [ 4] 1206 	ld	a, h
      0004E0 92               [ 4] 1207 	sub	a, d
      0004E1 28 70            [12] 1208 	jr	Z, 00101$
      0004E3                       1209 00249$:
      0004E3                       1210 00119$:
      0004E3 F8 00            [12] 1211 	ldhl	sp,	#0
      0004E5 7E               [ 8] 1212 	ld	a, (hl)
      0004E6 B7               [ 4] 1213 	or	a, a
      0004E7 28 0C            [12] 1214 	jr	Z, 00121$
      0004E9 21 06 00         [12] 1215 	ld	hl, #0x0006
      0004EC 09               [ 8] 1216 	add	hl, bc
      0004ED 7D               [ 4] 1217 	ld	a, l
      0004EE 93               [ 4] 1218 	sub	a, e
      0004EF 20 04            [12] 1219 	jr	NZ, 00250$
      0004F1 7C               [ 4] 1220 	ld	a, h
      0004F2 92               [ 4] 1221 	sub	a, d
      0004F3 28 5E            [12] 1222 	jr	Z, 00101$
      0004F5                       1223 00250$:
      0004F5                       1224 00121$:
      0004F5 F8 00            [12] 1225 	ldhl	sp,	#0
      0004F7 7E               [ 8] 1226 	ld	a, (hl)
      0004F8 B7               [ 4] 1227 	or	a, a
      0004F9 28 0C            [12] 1228 	jr	Z, 00123$
      0004FB 69               [ 4] 1229 	ld	l, c
                                   1230 ;	spillPairReg hl
                                   1231 ;	spillPairReg hl
      0004FC 60               [ 4] 1232 	ld	h, b
                                   1233 ;	spillPairReg hl
                                   1234 ;	spillPairReg hl
      0004FD 23               [ 8] 1235 	inc	hl
      0004FE 23               [ 8] 1236 	inc	hl
      0004FF 7D               [ 4] 1237 	ld	a, l
      000500 93               [ 4] 1238 	sub	a, e
      000501 20 04            [12] 1239 	jr	NZ, 00251$
      000503 7C               [ 4] 1240 	ld	a, h
      000504 92               [ 4] 1241 	sub	a, d
      000505 28 4C            [12] 1242 	jr	Z, 00101$
      000507                       1243 00251$:
      000507                       1244 00123$:
      000507 F8 00            [12] 1245 	ldhl	sp,	#0
      000509 7E               [ 8] 1246 	ld	a, (hl)
      00050A B7               [ 4] 1247 	or	a, a
      00050B 28 0D            [12] 1248 	jr	Z, 00125$
      00050D 69               [ 4] 1249 	ld	l, c
                                   1250 ;	spillPairReg hl
                                   1251 ;	spillPairReg hl
      00050E 60               [ 4] 1252 	ld	h, b
                                   1253 ;	spillPairReg hl
                                   1254 ;	spillPairReg hl
      00050F 23               [ 8] 1255 	inc	hl
      000510 23               [ 8] 1256 	inc	hl
      000511 23               [ 8] 1257 	inc	hl
      000512 7D               [ 4] 1258 	ld	a, l
      000513 93               [ 4] 1259 	sub	a, e
      000514 20 04            [12] 1260 	jr	NZ, 00252$
      000516 7C               [ 4] 1261 	ld	a, h
      000517 92               [ 4] 1262 	sub	a, d
      000518 28 39            [12] 1263 	jr	Z, 00101$
      00051A                       1264 00252$:
      00051A                       1265 00125$:
      00051A F8 00            [12] 1266 	ldhl	sp,	#0
      00051C 7E               [ 8] 1267 	ld	a, (hl)
      00051D B7               [ 4] 1268 	or	a, a
      00051E 28 0B            [12] 1269 	jr	Z, 00127$
      000520 69               [ 4] 1270 	ld	l, c
      000521 60               [ 4] 1271 	ld	h, b
      000522 2B               [ 8] 1272 	dec	hl
      000523 7D               [ 4] 1273 	ld	a, l
      000524 93               [ 4] 1274 	sub	a, e
      000525 20 04            [12] 1275 	jr	NZ, 00253$
      000527 7C               [ 4] 1276 	ld	a, h
      000528 92               [ 4] 1277 	sub	a, d
      000529 28 28            [12] 1278 	jr	Z, 00101$
      00052B                       1279 00253$:
      00052B                       1280 00127$:
      00052B F8 00            [12] 1281 	ldhl	sp,	#0
      00052D 7E               [ 8] 1282 	ld	a, (hl)
      00052E B7               [ 4] 1283 	or	a, a
      00052F 28 0C            [12] 1284 	jr	Z, 00129$
      000531 69               [ 4] 1285 	ld	l, c
      000532 60               [ 4] 1286 	ld	h, b
      000533 2B               [ 8] 1287 	dec	hl
      000534 2B               [ 8] 1288 	dec	hl
      000535 7D               [ 4] 1289 	ld	a, l
      000536 93               [ 4] 1290 	sub	a, e
      000537 20 04            [12] 1291 	jr	NZ, 00254$
      000539 7C               [ 4] 1292 	ld	a, h
      00053A 92               [ 4] 1293 	sub	a, d
      00053B 28 16            [12] 1294 	jr	Z, 00101$
      00053D                       1295 00254$:
      00053D                       1296 00129$:
      00053D F8 00            [12] 1297 	ldhl	sp,	#0
      00053F 7E               [ 8] 1298 	ld	a, (hl)
      000540 B7               [ 4] 1299 	or	a, a
      000541 28 20            [12] 1300 	jr	Z, 00102$
      000543 79               [ 4] 1301 	ld	a, c
      000544 C6 FD            [ 8] 1302 	add	a, #0xfd
      000546 4F               [ 4] 1303 	ld	c, a
      000547 78               [ 4] 1304 	ld	a, b
      000548 CE FF            [ 8] 1305 	adc	a, #0xff
      00054A 47               [ 4] 1306 	ld	b, a
      00054B 79               [ 4] 1307 	ld	a, c
      00054C 93               [ 4] 1308 	sub	a, e
      00054D 20 14            [12] 1309 	jr	NZ, 00102$
      00054F 78               [ 4] 1310 	ld	a, b
      000550 92               [ 4] 1311 	sub	a, d
      000551 20 10            [12] 1312 	jr	NZ, 00102$
      000553                       1313 00101$:
                                   1314 ;main.c:110: spriteYpos = 0;
      000553 21rE8r02         [12] 1315 	ld	hl, #_spriteYpos
      000556 36 00            [12] 1316 	ld	(hl), #0x00
                                   1317 ;main.c:111: moveSprite(&wineglass, 20, 0);
      000558 AF               [ 4] 1318 	xor	a, a
      000559 F5               [16] 1319 	push	af
      00055A 33               [ 8] 1320 	inc	sp
      00055B 3E 14            [ 8] 1321 	ld	a, #0x14
      00055D 11r00r00         [12] 1322 	ld	de, #_wineglass
      000560 CDr69r00         [24] 1323 	call	_moveSprite
      000563                       1324 00102$:
                                   1325 ;main.c:118: wait_vbl_done();
      000563 CDr00r00         [24] 1326 	call	_wait_vbl_done
      000566 C3r24r04         [16] 1327 	jp	00131$
                                   1328 ;main.c:123: }
      000569 33               [ 8] 1329 	inc	sp
      00056A C9               [16] 1330 	ret
                                   1331 	.area _CODE
                                   1332 	.area _INITIALIZER
      000000                       1333 __xinit__backgroundmap:
      000000 07                    1334 	.db #0x07	; 7
      000001 07                    1335 	.db #0x07	; 7
      000002 07                    1336 	.db #0x07	; 7
      000003 07                    1337 	.db #0x07	; 7
      000004 07                    1338 	.db #0x07	; 7
      000005 07                    1339 	.db #0x07	; 7
      000006 07                    1340 	.db #0x07	; 7
      000007 07                    1341 	.db #0x07	; 7
      000008 07                    1342 	.db #0x07	; 7
      000009 07                    1343 	.db #0x07	; 7
      00000A 07                    1344 	.db #0x07	; 7
      00000B 07                    1345 	.db #0x07	; 7
      00000C 07                    1346 	.db #0x07	; 7
      00000D 07                    1347 	.db #0x07	; 7
      00000E 07                    1348 	.db #0x07	; 7
      00000F 07                    1349 	.db #0x07	; 7
      000010 07                    1350 	.db #0x07	; 7
      000011 07                    1351 	.db #0x07	; 7
      000012 07                    1352 	.db #0x07	; 7
      000013 07                    1353 	.db #0x07	; 7
      000014 07                    1354 	.db #0x07	; 7
      000015 05                    1355 	.db #0x05	; 5
      000016 05                    1356 	.db #0x05	; 5
      000017 05                    1357 	.db #0x05	; 5
      000018 05                    1358 	.db #0x05	; 5
      000019 05                    1359 	.db #0x05	; 5
      00001A 05                    1360 	.db #0x05	; 5
      00001B 05                    1361 	.db #0x05	; 5
      00001C 05                    1362 	.db #0x05	; 5
      00001D 05                    1363 	.db #0x05	; 5
      00001E 05                    1364 	.db #0x05	; 5
      00001F 05                    1365 	.db #0x05	; 5
      000020 05                    1366 	.db #0x05	; 5
      000021 05                    1367 	.db #0x05	; 5
      000022 05                    1368 	.db #0x05	; 5
      000023 05                    1369 	.db #0x05	; 5
      000024 05                    1370 	.db #0x05	; 5
      000025 05                    1371 	.db #0x05	; 5
      000026 05                    1372 	.db #0x05	; 5
      000027 07                    1373 	.db #0x07	; 7
      000028 07                    1374 	.db #0x07	; 7
      000029 05                    1375 	.db #0x05	; 5
      00002A 05                    1376 	.db #0x05	; 5
      00002B 05                    1377 	.db #0x05	; 5
      00002C 05                    1378 	.db #0x05	; 5
      00002D 05                    1379 	.db #0x05	; 5
      00002E 05                    1380 	.db #0x05	; 5
      00002F 05                    1381 	.db #0x05	; 5
      000030 05                    1382 	.db #0x05	; 5
      000031 05                    1383 	.db #0x05	; 5
      000032 05                    1384 	.db #0x05	; 5
      000033 05                    1385 	.db #0x05	; 5
      000034 05                    1386 	.db #0x05	; 5
      000035 05                    1387 	.db #0x05	; 5
      000036 05                    1388 	.db #0x05	; 5
      000037 05                    1389 	.db #0x05	; 5
      000038 05                    1390 	.db #0x05	; 5
      000039 05                    1391 	.db #0x05	; 5
      00003A 05                    1392 	.db #0x05	; 5
      00003B 07                    1393 	.db #0x07	; 7
      00003C 07                    1394 	.db #0x07	; 7
      00003D 05                    1395 	.db #0x05	; 5
      00003E 05                    1396 	.db #0x05	; 5
      00003F 05                    1397 	.db #0x05	; 5
      000040 05                    1398 	.db #0x05	; 5
      000041 05                    1399 	.db #0x05	; 5
      000042 05                    1400 	.db #0x05	; 5
      000043 05                    1401 	.db #0x05	; 5
      000044 05                    1402 	.db #0x05	; 5
      000045 05                    1403 	.db #0x05	; 5
      000046 05                    1404 	.db #0x05	; 5
      000047 05                    1405 	.db #0x05	; 5
      000048 05                    1406 	.db #0x05	; 5
      000049 05                    1407 	.db #0x05	; 5
      00004A 05                    1408 	.db #0x05	; 5
      00004B 05                    1409 	.db #0x05	; 5
      00004C 05                    1410 	.db #0x05	; 5
      00004D 05                    1411 	.db #0x05	; 5
      00004E 05                    1412 	.db #0x05	; 5
      00004F 07                    1413 	.db #0x07	; 7
      000050 07                    1414 	.db #0x07	; 7
      000051 05                    1415 	.db #0x05	; 5
      000052 00                    1416 	.db #0x00	; 0
      000053 00                    1417 	.db #0x00	; 0
      000054 0E                    1418 	.db #0x0e	; 14
      000055 0E                    1419 	.db #0x0e	; 14
      000056 0E                    1420 	.db #0x0e	; 14
      000057 0E                    1421 	.db #0x0e	; 14
      000058 00                    1422 	.db #0x00	; 0
      000059 00                    1423 	.db #0x00	; 0
      00005A 00                    1424 	.db #0x00	; 0
      00005B 00                    1425 	.db #0x00	; 0
      00005C 0E                    1426 	.db #0x0e	; 14
      00005D 0E                    1427 	.db #0x0e	; 14
      00005E 0E                    1428 	.db #0x0e	; 14
      00005F 0E                    1429 	.db #0x0e	; 14
      000060 00                    1430 	.db #0x00	; 0
      000061 00                    1431 	.db #0x00	; 0
      000062 05                    1432 	.db #0x05	; 5
      000063 07                    1433 	.db #0x07	; 7
      000064 07                    1434 	.db #0x07	; 7
      000065 05                    1435 	.db #0x05	; 5
      000066 00                    1436 	.db #0x00	; 0
      000067 00                    1437 	.db #0x00	; 0
      000068 0D                    1438 	.db #0x0d	; 13
      000069 0D                    1439 	.db #0x0d	; 13
      00006A 0D                    1440 	.db #0x0d	; 13
      00006B 0D                    1441 	.db #0x0d	; 13
      00006C 00                    1442 	.db #0x00	; 0
      00006D 00                    1443 	.db #0x00	; 0
      00006E 00                    1444 	.db #0x00	; 0
      00006F 00                    1445 	.db #0x00	; 0
      000070 0D                    1446 	.db #0x0d	; 13
      000071 0D                    1447 	.db #0x0d	; 13
      000072 0D                    1448 	.db #0x0d	; 13
      000073 0D                    1449 	.db #0x0d	; 13
      000074 00                    1450 	.db #0x00	; 0
      000075 00                    1451 	.db #0x00	; 0
      000076 05                    1452 	.db #0x05	; 5
      000077 07                    1453 	.db #0x07	; 7
      000078 07                    1454 	.db #0x07	; 7
      000079 05                    1455 	.db #0x05	; 5
      00007A 00                    1456 	.db #0x00	; 0
      00007B 00                    1457 	.db #0x00	; 0
      00007C 00                    1458 	.db #0x00	; 0
      00007D 00                    1459 	.db #0x00	; 0
      00007E 00                    1460 	.db #0x00	; 0
      00007F 00                    1461 	.db #0x00	; 0
      000080 00                    1462 	.db #0x00	; 0
      000081 00                    1463 	.db #0x00	; 0
      000082 00                    1464 	.db #0x00	; 0
      000083 00                    1465 	.db #0x00	; 0
      000084 00                    1466 	.db #0x00	; 0
      000085 00                    1467 	.db #0x00	; 0
      000086 00                    1468 	.db #0x00	; 0
      000087 00                    1469 	.db #0x00	; 0
      000088 00                    1470 	.db #0x00	; 0
      000089 00                    1471 	.db #0x00	; 0
      00008A 05                    1472 	.db #0x05	; 5
      00008B 07                    1473 	.db #0x07	; 7
      00008C 07                    1474 	.db #0x07	; 7
      00008D 05                    1475 	.db #0x05	; 5
      00008E 0C                    1476 	.db #0x0c	; 12
      00008F 0C                    1477 	.db #0x0c	; 12
      000090 0C                    1478 	.db #0x0c	; 12
      000091 0C                    1479 	.db #0x0c	; 12
      000092 0C                    1480 	.db #0x0c	; 12
      000093 00                    1481 	.db #0x00	; 0
      000094 00                    1482 	.db #0x00	; 0
      000095 00                    1483 	.db #0x00	; 0
      000096 00                    1484 	.db #0x00	; 0
      000097 00                    1485 	.db #0x00	; 0
      000098 00                    1486 	.db #0x00	; 0
      000099 00                    1487 	.db #0x00	; 0
      00009A 00                    1488 	.db #0x00	; 0
      00009B 00                    1489 	.db #0x00	; 0
      00009C 00                    1490 	.db #0x00	; 0
      00009D 00                    1491 	.db #0x00	; 0
      00009E 05                    1492 	.db #0x05	; 5
      00009F 07                    1493 	.db #0x07	; 7
      0000A0 07                    1494 	.db #0x07	; 7
      0000A1 05                    1495 	.db #0x05	; 5
      0000A2 09                    1496 	.db #0x09	; 9
      0000A3 09                    1497 	.db #0x09	; 9
      0000A4 09                    1498 	.db #0x09	; 9
      0000A5 09                    1499 	.db #0x09	; 9
      0000A6 09                    1500 	.db #0x09	; 9
      0000A7 00                    1501 	.db #0x00	; 0
      0000A8 00                    1502 	.db #0x00	; 0
      0000A9 00                    1503 	.db #0x00	; 0
      0000AA 00                    1504 	.db #0x00	; 0
      0000AB 00                    1505 	.db #0x00	; 0
      0000AC 00                    1506 	.db #0x00	; 0
      0000AD 08                    1507 	.db #0x08	; 8
      0000AE 08                    1508 	.db #0x08	; 8
      0000AF 08                    1509 	.db #0x08	; 8
      0000B0 08                    1510 	.db #0x08	; 8
      0000B1 08                    1511 	.db #0x08	; 8
      0000B2 05                    1512 	.db #0x05	; 5
      0000B3 07                    1513 	.db #0x07	; 7
      0000B4 07                    1514 	.db #0x07	; 7
      0000B5 05                    1515 	.db #0x05	; 5
      0000B6 00                    1516 	.db #0x00	; 0
      0000B7 00                    1517 	.db #0x00	; 0
      0000B8 00                    1518 	.db #0x00	; 0
      0000B9 00                    1519 	.db #0x00	; 0
      0000BA 00                    1520 	.db #0x00	; 0
      0000BB 00                    1521 	.db #0x00	; 0
      0000BC 00                    1522 	.db #0x00	; 0
      0000BD 00                    1523 	.db #0x00	; 0
      0000BE 00                    1524 	.db #0x00	; 0
      0000BF 00                    1525 	.db #0x00	; 0
      0000C0 00                    1526 	.db #0x00	; 0
      0000C1 00                    1527 	.db #0x00	; 0
      0000C2 00                    1528 	.db #0x00	; 0
      0000C3 00                    1529 	.db #0x00	; 0
      0000C4 00                    1530 	.db #0x00	; 0
      0000C5 00                    1531 	.db #0x00	; 0
      0000C6 05                    1532 	.db #0x05	; 5
      0000C7 07                    1533 	.db #0x07	; 7
      0000C8 07                    1534 	.db #0x07	; 7
      0000C9 05                    1535 	.db #0x05	; 5
      0000CA 00                    1536 	.db #0x00	; 0
      0000CB 00                    1537 	.db #0x00	; 0
      0000CC 00                    1538 	.db #0x00	; 0
      0000CD 00                    1539 	.db #0x00	; 0
      0000CE 00                    1540 	.db #0x00	; 0
      0000CF 00                    1541 	.db #0x00	; 0
      0000D0 00                    1542 	.db #0x00	; 0
      0000D1 00                    1543 	.db #0x00	; 0
      0000D2 00                    1544 	.db #0x00	; 0
      0000D3 00                    1545 	.db #0x00	; 0
      0000D4 00                    1546 	.db #0x00	; 0
      0000D5 00                    1547 	.db #0x00	; 0
      0000D6 00                    1548 	.db #0x00	; 0
      0000D7 00                    1549 	.db #0x00	; 0
      0000D8 00                    1550 	.db #0x00	; 0
      0000D9 00                    1551 	.db #0x00	; 0
      0000DA 05                    1552 	.db #0x05	; 5
      0000DB 07                    1553 	.db #0x07	; 7
      0000DC 07                    1554 	.db #0x07	; 7
      0000DD 05                    1555 	.db #0x05	; 5
      0000DE 00                    1556 	.db #0x00	; 0
      0000DF 00                    1557 	.db #0x00	; 0
      0000E0 10                    1558 	.db #0x10	; 16
      0000E1 00                    1559 	.db #0x00	; 0
      0000E2 00                    1560 	.db #0x00	; 0
      0000E3 10                    1561 	.db #0x10	; 16
      0000E4 00                    1562 	.db #0x00	; 0
      0000E5 00                    1563 	.db #0x00	; 0
      0000E6 00                    1564 	.db #0x00	; 0
      0000E7 00                    1565 	.db #0x00	; 0
      0000E8 10                    1566 	.db #0x10	; 16
      0000E9 00                    1567 	.db #0x00	; 0
      0000EA 00                    1568 	.db #0x00	; 0
      0000EB 10                    1569 	.db #0x10	; 16
      0000EC 00                    1570 	.db #0x00	; 0
      0000ED 00                    1571 	.db #0x00	; 0
      0000EE 05                    1572 	.db #0x05	; 5
      0000EF 07                    1573 	.db #0x07	; 7
      0000F0 07                    1574 	.db #0x07	; 7
      0000F1 05                    1575 	.db #0x05	; 5
      0000F2 00                    1576 	.db #0x00	; 0
      0000F3 00                    1577 	.db #0x00	; 0
      0000F4 0F                    1578 	.db #0x0f	; 15
      0000F5 00                    1579 	.db #0x00	; 0
      0000F6 00                    1580 	.db #0x00	; 0
      0000F7 11                    1581 	.db #0x11	; 17
      0000F8 00                    1582 	.db #0x00	; 0
      0000F9 00                    1583 	.db #0x00	; 0
      0000FA 00                    1584 	.db #0x00	; 0
      0000FB 00                    1585 	.db #0x00	; 0
      0000FC 11                    1586 	.db #0x11	; 17
      0000FD 00                    1587 	.db #0x00	; 0
      0000FE 00                    1588 	.db #0x00	; 0
      0000FF 0F                    1589 	.db #0x0f	; 15
      000100 00                    1590 	.db #0x00	; 0
      000101 00                    1591 	.db #0x00	; 0
      000102 05                    1592 	.db #0x05	; 5
      000103 07                    1593 	.db #0x07	; 7
      000104 07                    1594 	.db #0x07	; 7
      000105 00                    1595 	.db #0x00	; 0
      000106 02                    1596 	.db #0x02	; 2
      000107 03                    1597 	.db #0x03	; 3
      000108 03                    1598 	.db #0x03	; 3
      000109 03                    1599 	.db #0x03	; 3
      00010A 03                    1600 	.db #0x03	; 3
      00010B 03                    1601 	.db #0x03	; 3
      00010C 03                    1602 	.db #0x03	; 3
      00010D 03                    1603 	.db #0x03	; 3
      00010E 03                    1604 	.db #0x03	; 3
      00010F 03                    1605 	.db #0x03	; 3
      000110 03                    1606 	.db #0x03	; 3
      000111 03                    1607 	.db #0x03	; 3
      000112 03                    1608 	.db #0x03	; 3
      000113 03                    1609 	.db #0x03	; 3
      000114 03                    1610 	.db #0x03	; 3
      000115 04                    1611 	.db #0x04	; 4
      000116 00                    1612 	.db #0x00	; 0
      000117 07                    1613 	.db #0x07	; 7
      000118 07                    1614 	.db #0x07	; 7
      000119 00                    1615 	.db #0x00	; 0
      00011A 06                    1616 	.db #0x06	; 6
      00011B 06                    1617 	.db #0x06	; 6
      00011C 06                    1618 	.db #0x06	; 6
      00011D 06                    1619 	.db #0x06	; 6
      00011E 06                    1620 	.db #0x06	; 6
      00011F 06                    1621 	.db #0x06	; 6
      000120 06                    1622 	.db #0x06	; 6
      000121 06                    1623 	.db #0x06	; 6
      000122 06                    1624 	.db #0x06	; 6
      000123 06                    1625 	.db #0x06	; 6
      000124 06                    1626 	.db #0x06	; 6
      000125 06                    1627 	.db #0x06	; 6
      000126 06                    1628 	.db #0x06	; 6
      000127 06                    1629 	.db #0x06	; 6
      000128 06                    1630 	.db #0x06	; 6
      000129 06                    1631 	.db #0x06	; 6
      00012A 00                    1632 	.db #0x00	; 0
      00012B 07                    1633 	.db #0x07	; 7
      00012C 07                    1634 	.db #0x07	; 7
      00012D 00                    1635 	.db #0x00	; 0
      00012E 06                    1636 	.db #0x06	; 6
      00012F 06                    1637 	.db #0x06	; 6
      000130 06                    1638 	.db #0x06	; 6
      000131 06                    1639 	.db #0x06	; 6
      000132 06                    1640 	.db #0x06	; 6
      000133 06                    1641 	.db #0x06	; 6
      000134 06                    1642 	.db #0x06	; 6
      000135 06                    1643 	.db #0x06	; 6
      000136 06                    1644 	.db #0x06	; 6
      000137 06                    1645 	.db #0x06	; 6
      000138 06                    1646 	.db #0x06	; 6
      000139 06                    1647 	.db #0x06	; 6
      00013A 06                    1648 	.db #0x06	; 6
      00013B 06                    1649 	.db #0x06	; 6
      00013C 06                    1650 	.db #0x06	; 6
      00013D 06                    1651 	.db #0x06	; 6
      00013E 00                    1652 	.db #0x00	; 0
      00013F 07                    1653 	.db #0x07	; 7
      000140 07                    1654 	.db #0x07	; 7
      000141 01                    1655 	.db #0x01	; 1
      000142 06                    1656 	.db #0x06	; 6
      000143 06                    1657 	.db #0x06	; 6
      000144 06                    1658 	.db #0x06	; 6
      000145 06                    1659 	.db #0x06	; 6
      000146 06                    1660 	.db #0x06	; 6
      000147 06                    1661 	.db #0x06	; 6
      000148 06                    1662 	.db #0x06	; 6
      000149 06                    1663 	.db #0x06	; 6
      00014A 06                    1664 	.db #0x06	; 6
      00014B 06                    1665 	.db #0x06	; 6
      00014C 06                    1666 	.db #0x06	; 6
      00014D 06                    1667 	.db #0x06	; 6
      00014E 06                    1668 	.db #0x06	; 6
      00014F 06                    1669 	.db #0x06	; 6
      000150 06                    1670 	.db #0x06	; 6
      000151 06                    1671 	.db #0x06	; 6
      000152 01                    1672 	.db #0x01	; 1
      000153 07                    1673 	.db #0x07	; 7
      000154 05                    1674 	.db #0x05	; 5
      000155 05                    1675 	.db #0x05	; 5
      000156 05                    1676 	.db #0x05	; 5
      000157 05                    1677 	.db #0x05	; 5
      000158 05                    1678 	.db #0x05	; 5
      000159 05                    1679 	.db #0x05	; 5
      00015A 05                    1680 	.db #0x05	; 5
      00015B 05                    1681 	.db #0x05	; 5
      00015C 05                    1682 	.db #0x05	; 5
      00015D 05                    1683 	.db #0x05	; 5
      00015E 05                    1684 	.db #0x05	; 5
      00015F 05                    1685 	.db #0x05	; 5
      000160 05                    1686 	.db #0x05	; 5
      000161 05                    1687 	.db #0x05	; 5
      000162 05                    1688 	.db #0x05	; 5
      000163 05                    1689 	.db #0x05	; 5
      000164 05                    1690 	.db #0x05	; 5
      000165 05                    1691 	.db #0x05	; 5
      000166 05                    1692 	.db #0x05	; 5
      000167 05                    1693 	.db #0x05	; 5
      000168                       1694 __xinit__BackgroundTiles:
      000168 00                    1695 	.db #0x00	; 0
      000169 00                    1696 	.db #0x00	; 0
      00016A 00                    1697 	.db #0x00	; 0
      00016B 00                    1698 	.db #0x00	; 0
      00016C 00                    1699 	.db #0x00	; 0
      00016D 00                    1700 	.db #0x00	; 0
      00016E 00                    1701 	.db #0x00	; 0
      00016F 00                    1702 	.db #0x00	; 0
      000170 00                    1703 	.db #0x00	; 0
      000171 00                    1704 	.db #0x00	; 0
      000172 00                    1705 	.db #0x00	; 0
      000173 00                    1706 	.db #0x00	; 0
      000174 00                    1707 	.db #0x00	; 0
      000175 00                    1708 	.db #0x00	; 0
      000176 00                    1709 	.db #0x00	; 0
      000177 00                    1710 	.db #0x00	; 0
      000178 00                    1711 	.db #0x00	; 0
      000179 00                    1712 	.db #0x00	; 0
      00017A 00                    1713 	.db #0x00	; 0
      00017B 00                    1714 	.db #0x00	; 0
      00017C 00                    1715 	.db #0x00	; 0
      00017D 00                    1716 	.db #0x00	; 0
      00017E 00                    1717 	.db #0x00	; 0
      00017F 00                    1718 	.db #0x00	; 0
      000180 00                    1719 	.db #0x00	; 0
      000181 00                    1720 	.db #0x00	; 0
      000182 FF                    1721 	.db #0xff	; 255
      000183 FF                    1722 	.db #0xff	; 255
      000184 00                    1723 	.db #0x00	; 0
      000185 FF                    1724 	.db #0xff	; 255
      000186 FF                    1725 	.db #0xff	; 255
      000187 00                    1726 	.db #0x00	; 0
      000188 7F                    1727 	.db #0x7f	; 127
      000189 7F                    1728 	.db #0x7f	; 127
      00018A AA                    1729 	.db #0xaa	; 170
      00018B D5                    1730 	.db #0xd5	; 213
      00018C AA                    1731 	.db #0xaa	; 170
      00018D D5                    1732 	.db #0xd5	; 213
      00018E AA                    1733 	.db #0xaa	; 170
      00018F D5                    1734 	.db #0xd5	; 213
      000190 AA                    1735 	.db #0xaa	; 170
      000191 D5                    1736 	.db #0xd5	; 213
      000192 AA                    1737 	.db #0xaa	; 170
      000193 D5                    1738 	.db #0xd5	; 213
      000194 AA                    1739 	.db #0xaa	; 170
      000195 D5                    1740 	.db #0xd5	; 213
      000196 AA                    1741 	.db #0xaa	; 170
      000197 D5                    1742 	.db #0xd5	; 213
      000198 FF                    1743 	.db #0xff	; 255
      000199 FF                    1744 	.db #0xff	; 255
      00019A AA                    1745 	.db #0xaa	; 170
      00019B 55                    1746 	.db #0x55	; 85	'U'
      00019C AA                    1747 	.db #0xaa	; 170
      00019D 55                    1748 	.db #0x55	; 85	'U'
      00019E AA                    1749 	.db #0xaa	; 170
      00019F 55                    1750 	.db #0x55	; 85	'U'
      0001A0 AA                    1751 	.db #0xaa	; 170
      0001A1 55                    1752 	.db #0x55	; 85	'U'
      0001A2 AA                    1753 	.db #0xaa	; 170
      0001A3 55                    1754 	.db #0x55	; 85	'U'
      0001A4 AA                    1755 	.db #0xaa	; 170
      0001A5 55                    1756 	.db #0x55	; 85	'U'
      0001A6 AA                    1757 	.db #0xaa	; 170
      0001A7 55                    1758 	.db #0x55	; 85	'U'
      0001A8 FE                    1759 	.db #0xfe	; 254
      0001A9 FE                    1760 	.db #0xfe	; 254
      0001AA AB                    1761 	.db #0xab	; 171
      0001AB 55                    1762 	.db #0x55	; 85	'U'
      0001AC AB                    1763 	.db #0xab	; 171
      0001AD 55                    1764 	.db #0x55	; 85	'U'
      0001AE AB                    1765 	.db #0xab	; 171
      0001AF 55                    1766 	.db #0x55	; 85	'U'
      0001B0 AB                    1767 	.db #0xab	; 171
      0001B1 55                    1768 	.db #0x55	; 85	'U'
      0001B2 AB                    1769 	.db #0xab	; 171
      0001B3 55                    1770 	.db #0x55	; 85	'U'
      0001B4 AB                    1771 	.db #0xab	; 171
      0001B5 55                    1772 	.db #0x55	; 85	'U'
      0001B6 AB                    1773 	.db #0xab	; 171
      0001B7 55                    1774 	.db #0x55	; 85	'U'
      0001B8 00                    1775 	.db #0x00	; 0
      0001B9 FF                    1776 	.db #0xff	; 255
      0001BA 00                    1777 	.db #0x00	; 0
      0001BB FF                    1778 	.db #0xff	; 255
      0001BC 00                    1779 	.db #0x00	; 0
      0001BD FF                    1780 	.db #0xff	; 255
      0001BE 00                    1781 	.db #0x00	; 0
      0001BF FF                    1782 	.db #0xff	; 255
      0001C0 00                    1783 	.db #0x00	; 0
      0001C1 FF                    1784 	.db #0xff	; 255
      0001C2 00                    1785 	.db #0x00	; 0
      0001C3 FF                    1786 	.db #0xff	; 255
      0001C4 00                    1787 	.db #0x00	; 0
      0001C5 FF                    1788 	.db #0xff	; 255
      0001C6 00                    1789 	.db #0x00	; 0
      0001C7 FF                    1790 	.db #0xff	; 255
      0001C8 FF                    1791 	.db #0xff	; 255
      0001C9 00                    1792 	.db #0x00	; 0
      0001CA FF                    1793 	.db #0xff	; 255
      0001CB 00                    1794 	.db #0x00	; 0
      0001CC FF                    1795 	.db #0xff	; 255
      0001CD 00                    1796 	.db #0x00	; 0
      0001CE FF                    1797 	.db #0xff	; 255
      0001CF 00                    1798 	.db #0x00	; 0
      0001D0 FF                    1799 	.db #0xff	; 255
      0001D1 00                    1800 	.db #0x00	; 0
      0001D2 FF                    1801 	.db #0xff	; 255
      0001D3 00                    1802 	.db #0x00	; 0
      0001D4 FF                    1803 	.db #0xff	; 255
      0001D5 00                    1804 	.db #0x00	; 0
      0001D6 FF                    1805 	.db #0xff	; 255
      0001D7 00                    1806 	.db #0x00	; 0
      0001D8 FF                    1807 	.db #0xff	; 255
      0001D9 FF                    1808 	.db #0xff	; 255
      0001DA FF                    1809 	.db #0xff	; 255
      0001DB FF                    1810 	.db #0xff	; 255
      0001DC FF                    1811 	.db #0xff	; 255
      0001DD FF                    1812 	.db #0xff	; 255
      0001DE FF                    1813 	.db #0xff	; 255
      0001DF FF                    1814 	.db #0xff	; 255
      0001E0 FF                    1815 	.db #0xff	; 255
      0001E1 FF                    1816 	.db #0xff	; 255
      0001E2 FF                    1817 	.db #0xff	; 255
      0001E3 FF                    1818 	.db #0xff	; 255
      0001E4 FF                    1819 	.db #0xff	; 255
      0001E5 FF                    1820 	.db #0xff	; 255
      0001E6 FF                    1821 	.db #0xff	; 255
      0001E7 FF                    1822 	.db #0xff	; 255
      0001E8 7E                    1823 	.db #0x7e	; 126
      0001E9 42                    1824 	.db #0x42	; 66	'B'
      0001EA 3C                    1825 	.db #0x3c	; 60
      0001EB 24                    1826 	.db #0x24	; 36
      0001EC 18                    1827 	.db #0x18	; 24
      0001ED 18                    1828 	.db #0x18	; 24
      0001EE 18                    1829 	.db #0x18	; 24
      0001EF 18                    1830 	.db #0x18	; 24
      0001F0 3C                    1831 	.db #0x3c	; 60
      0001F1 3C                    1832 	.db #0x3c	; 60
      0001F2 00                    1833 	.db #0x00	; 0
      0001F3 FF                    1834 	.db #0xff	; 255
      0001F4 FF                    1835 	.db #0xff	; 255
      0001F5 00                    1836 	.db #0x00	; 0
      0001F6 FF                    1837 	.db #0xff	; 255
      0001F7 00                    1838 	.db #0x00	; 0
      0001F8 42                    1839 	.db #0x42	; 66	'B'
      0001F9 42                    1840 	.db #0x42	; 66	'B'
      0001FA 42                    1841 	.db #0x42	; 66	'B'
      0001FB 42                    1842 	.db #0x42	; 66	'B'
      0001FC 42                    1843 	.db #0x42	; 66	'B'
      0001FD 42                    1844 	.db #0x42	; 66	'B'
      0001FE 42                    1845 	.db #0x42	; 66	'B'
      0001FF 42                    1846 	.db #0x42	; 66	'B'
      000200 3C                    1847 	.db #0x3c	; 60
      000201 3C                    1848 	.db #0x3c	; 60
      000202 00                    1849 	.db #0x00	; 0
      000203 FF                    1850 	.db #0xff	; 255
      000204 FF                    1851 	.db #0xff	; 255
      000205 00                    1852 	.db #0x00	; 0
      000206 FF                    1853 	.db #0xff	; 255
      000207 00                    1854 	.db #0x00	; 0
      000208 7E                    1855 	.db #0x7e	; 126
      000209 42                    1856 	.db #0x42	; 66	'B'
      00020A 7E                    1857 	.db #0x7e	; 126
      00020B 42                    1858 	.db #0x42	; 66	'B'
      00020C 7E                    1859 	.db #0x7e	; 126
      00020D 42                    1860 	.db #0x42	; 66	'B'
      00020E 7E                    1861 	.db #0x7e	; 126
      00020F 42                    1862 	.db #0x42	; 66	'B'
      000210 3C                    1863 	.db #0x3c	; 60
      000211 3C                    1864 	.db #0x3c	; 60
      000212 00                    1865 	.db #0x00	; 0
      000213 FF                    1866 	.db #0xff	; 255
      000214 FF                    1867 	.db #0xff	; 255
      000215 00                    1868 	.db #0x00	; 0
      000216 FF                    1869 	.db #0xff	; 255
      000217 00                    1870 	.db #0x00	; 0
      000218 00                    1871 	.db #0x00	; 0
      000219 00                    1872 	.db #0x00	; 0
      00021A 00                    1873 	.db #0x00	; 0
      00021B 00                    1874 	.db #0x00	; 0
      00021C 00                    1875 	.db #0x00	; 0
      00021D 00                    1876 	.db #0x00	; 0
      00021E 00                    1877 	.db #0x00	; 0
      00021F 00                    1878 	.db #0x00	; 0
      000220 00                    1879 	.db #0x00	; 0
      000221 00                    1880 	.db #0x00	; 0
      000222 00                    1881 	.db #0x00	; 0
      000223 00                    1882 	.db #0x00	; 0
      000224 00                    1883 	.db #0x00	; 0
      000225 00                    1884 	.db #0x00	; 0
      000226 42                    1885 	.db #0x42	; 66	'B'
      000227 7E                    1886 	.db #0x7e	; 126
      000228 00                    1887 	.db #0x00	; 0
      000229 00                    1888 	.db #0x00	; 0
      00022A 00                    1889 	.db #0x00	; 0
      00022B 00                    1890 	.db #0x00	; 0
      00022C 00                    1891 	.db #0x00	; 0
      00022D 00                    1892 	.db #0x00	; 0
      00022E 00                    1893 	.db #0x00	; 0
      00022F 00                    1894 	.db #0x00	; 0
      000230 00                    1895 	.db #0x00	; 0
      000231 00                    1896 	.db #0x00	; 0
      000232 00                    1897 	.db #0x00	; 0
      000233 00                    1898 	.db #0x00	; 0
      000234 00                    1899 	.db #0x00	; 0
      000235 00                    1900 	.db #0x00	; 0
      000236 42                    1901 	.db #0x42	; 66	'B'
      000237 42                    1902 	.db #0x42	; 66	'B'
      000238 7E                    1903 	.db #0x7e	; 126
      000239 4A                    1904 	.db #0x4a	; 74	'J'
      00023A 7E                    1905 	.db #0x7e	; 126
      00023B 52                    1906 	.db #0x52	; 82	'R'
      00023C 42                    1907 	.db #0x42	; 66	'B'
      00023D 7E                    1908 	.db #0x7e	; 126
      00023E 42                    1909 	.db #0x42	; 66	'B'
      00023F 7E                    1910 	.db #0x7e	; 126
      000240 7E                    1911 	.db #0x7e	; 126
      000241 7E                    1912 	.db #0x7e	; 126
      000242 00                    1913 	.db #0x00	; 0
      000243 FF                    1914 	.db #0xff	; 255
      000244 FF                    1915 	.db #0xff	; 255
      000245 00                    1916 	.db #0x00	; 0
      000246 FF                    1917 	.db #0xff	; 255
      000247 00                    1918 	.db #0x00	; 0
      000248 00                    1919 	.db #0x00	; 0
      000249 00                    1920 	.db #0x00	; 0
      00024A 00                    1921 	.db #0x00	; 0
      00024B 00                    1922 	.db #0x00	; 0
      00024C 00                    1923 	.db #0x00	; 0
      00024D 00                    1924 	.db #0x00	; 0
      00024E 18                    1925 	.db #0x18	; 24
      00024F 00                    1926 	.db #0x00	; 0
      000250 18                    1927 	.db #0x18	; 24
      000251 18                    1928 	.db #0x18	; 24
      000252 18                    1929 	.db #0x18	; 24
      000253 18                    1930 	.db #0x18	; 24
      000254 24                    1931 	.db #0x24	; 36
      000255 3C                    1932 	.db #0x3c	; 60
      000256 42                    1933 	.db #0x42	; 66	'B'
      000257 7E                    1934 	.db #0x7e	; 126
      000258 3C                    1935 	.db #0x3c	; 60
      000259 3C                    1936 	.db #0x3c	; 60
      00025A 3C                    1937 	.db #0x3c	; 60
      00025B 3C                    1938 	.db #0x3c	; 60
      00025C 3C                    1939 	.db #0x3c	; 60
      00025D 00                    1940 	.db #0x00	; 0
      00025E 42                    1941 	.db #0x42	; 66	'B'
      00025F 3C                    1942 	.db #0x3c	; 60
      000260 42                    1943 	.db #0x42	; 66	'B'
      000261 3C                    1944 	.db #0x3c	; 60
      000262 42                    1945 	.db #0x42	; 66	'B'
      000263 3C                    1946 	.db #0x3c	; 60
      000264 3C                    1947 	.db #0x3c	; 60
      000265 00                    1948 	.db #0x00	; 0
      000266 3C                    1949 	.db #0x3c	; 60
      000267 3C                    1950 	.db #0x3c	; 60
      000268 00                    1951 	.db #0x00	; 0
      000269 00                    1952 	.db #0x00	; 0
      00026A 00                    1953 	.db #0x00	; 0
      00026B 00                    1954 	.db #0x00	; 0
      00026C 00                    1955 	.db #0x00	; 0
      00026D 00                    1956 	.db #0x00	; 0
      00026E 00                    1957 	.db #0x00	; 0
      00026F 00                    1958 	.db #0x00	; 0
      000270 00                    1959 	.db #0x00	; 0
      000271 00                    1960 	.db #0x00	; 0
      000272 00                    1961 	.db #0x00	; 0
      000273 00                    1962 	.db #0x00	; 0
      000274 00                    1963 	.db #0x00	; 0
      000275 00                    1964 	.db #0x00	; 0
      000276 18                    1965 	.db #0x18	; 24
      000277 18                    1966 	.db #0x18	; 24
      000278 3C                    1967 	.db #0x3c	; 60
      000279 3C                    1968 	.db #0x3c	; 60
      00027A 3C                    1969 	.db #0x3c	; 60
      00027B 00                    1970 	.db #0x00	; 0
      00027C 66                    1971 	.db #0x66	; 102	'f'
      00027D 18                    1972 	.db #0x18	; 24
      00027E A5                    1973 	.db #0xa5	; 165
      00027F 5A                    1974 	.db #0x5a	; 90	'Z'
      000280 A5                    1975 	.db #0xa5	; 165
      000281 5A                    1976 	.db #0x5a	; 90	'Z'
      000282 66                    1977 	.db #0x66	; 102	'f'
      000283 18                    1978 	.db #0x18	; 24
      000284 3C                    1979 	.db #0x3c	; 60
      000285 00                    1980 	.db #0x00	; 0
      000286 3C                    1981 	.db #0x3c	; 60
      000287 3C                    1982 	.db #0x3c	; 60
      000288 00                    1983 	.db #0x00	; 0
      000289 00                    1984 	.db #0x00	; 0
      00028A 00                    1985 	.db #0x00	; 0
      00028B 00                    1986 	.db #0x00	; 0
      00028C 00                    1987 	.db #0x00	; 0
      00028D 00                    1988 	.db #0x00	; 0
      00028E 00                    1989 	.db #0x00	; 0
      00028F 00                    1990 	.db #0x00	; 0
      000290 00                    1991 	.db #0x00	; 0
      000291 00                    1992 	.db #0x00	; 0
      000292 00                    1993 	.db #0x00	; 0
      000293 00                    1994 	.db #0x00	; 0
      000294 00                    1995 	.db #0x00	; 0
      000295 00                    1996 	.db #0x00	; 0
      000296 00                    1997 	.db #0x00	; 0
      000297 00                    1998 	.db #0x00	; 0
      000298                       1999 __xinit__Bartender:
      000298 07                    2000 	.db #0x07	; 7
      000299 07                    2001 	.db #0x07	; 7
      00029A 08                    2002 	.db #0x08	; 8
      00029B 08                    2003 	.db #0x08	; 8
      00029C 0A                    2004 	.db #0x0a	; 10
      00029D 0A                    2005 	.db #0x0a	; 10
      00029E 1A                    2006 	.db #0x1a	; 26
      00029F 1A                    2007 	.db #0x1a	; 26
      0002A0 10                    2008 	.db #0x10	; 16
      0002A1 10                    2009 	.db #0x10	; 16
      0002A2 09                    2010 	.db #0x09	; 9
      0002A3 09                    2011 	.db #0x09	; 9
      0002A4 0C                    2012 	.db #0x0c	; 12
      0002A5 0C                    2013 	.db #0x0c	; 12
      0002A6 1E                    2014 	.db #0x1e	; 30
      0002A7 11                    2015 	.db #0x11	; 17
      0002A8 E0                    2016 	.db #0xe0	; 224
      0002A9 E0                    2017 	.db #0xe0	; 224
      0002AA 10                    2018 	.db #0x10	; 16
      0002AB 10                    2019 	.db #0x10	; 16
      0002AC 50                    2020 	.db #0x50	; 80	'P'
      0002AD 50                    2021 	.db #0x50	; 80	'P'
      0002AE 58                    2022 	.db #0x58	; 88	'X'
      0002AF 58                    2023 	.db #0x58	; 88	'X'
      0002B0 08                    2024 	.db #0x08	; 8
      0002B1 08                    2025 	.db #0x08	; 8
      0002B2 90                    2026 	.db #0x90	; 144
      0002B3 90                    2027 	.db #0x90	; 144
      0002B4 30                    2028 	.db #0x30	; 48	'0'
      0002B5 30                    2029 	.db #0x30	; 48	'0'
      0002B6 78                    2030 	.db #0x78	; 120	'x'
      0002B7 88                    2031 	.db #0x88	; 136
      0002B8 3F                    2032 	.db #0x3f	; 63
      0002B9 20                    2033 	.db #0x20	; 32
      0002BA 3F                    2034 	.db #0x3f	; 63
      0002BB 28                    2035 	.db #0x28	; 40
      0002BC 3F                    2036 	.db #0x3f	; 63
      0002BD 28                    2037 	.db #0x28	; 40
      0002BE 2F                    2038 	.db #0x2f	; 47
      0002BF 38                    2039 	.db #0x38	; 56	'8'
      0002C0 29                    2040 	.db #0x29	; 41
      0002C1 3F                    2041 	.db #0x3f	; 63
      0002C2 12                    2042 	.db #0x12	; 18
      0002C3 16                    2043 	.db #0x16	; 22
      0002C4 0A                    2044 	.db #0x0a	; 10
      0002C5 0E                    2045 	.db #0x0e	; 14
      0002C6 12                    2046 	.db #0x12	; 18
      0002C7 1E                    2047 	.db #0x1e	; 30
      0002C8 FC                    2048 	.db #0xfc	; 252
      0002C9 04                    2049 	.db #0x04	; 4
      0002CA FC                    2050 	.db #0xfc	; 252
      0002CB 14                    2051 	.db #0x14	; 20
      0002CC FC                    2052 	.db #0xfc	; 252
      0002CD 14                    2053 	.db #0x14	; 20
      0002CE F4                    2054 	.db #0xf4	; 244
      0002CF 1C                    2055 	.db #0x1c	; 28
      0002D0 94                    2056 	.db #0x94	; 148
      0002D1 FC                    2057 	.db #0xfc	; 252
      0002D2 48                    2058 	.db #0x48	; 72	'H'
      0002D3 68                    2059 	.db #0x68	; 104	'h'
      0002D4 50                    2060 	.db #0x50	; 80	'P'
      0002D5 70                    2061 	.db #0x70	; 112	'p'
      0002D6 48                    2062 	.db #0x48	; 72	'H'
      0002D7 78                    2063 	.db #0x78	; 120	'x'
      0002D8                       2064 __xinit__Wine:
      0002D8 42                    2065 	.db #0x42	; 66	'B'
      0002D9 7E                    2066 	.db #0x7e	; 126
      0002DA 42                    2067 	.db #0x42	; 66	'B'
      0002DB 7E                    2068 	.db #0x7e	; 126
      0002DC 42                    2069 	.db #0x42	; 66	'B'
      0002DD 7E                    2070 	.db #0x7e	; 126
      0002DE 3C                    2071 	.db #0x3c	; 60
      0002DF 3C                    2072 	.db #0x3c	; 60
      0002E0 18                    2073 	.db #0x18	; 24
      0002E1 18                    2074 	.db #0x18	; 24
      0002E2 18                    2075 	.db #0x18	; 24
      0002E3 18                    2076 	.db #0x18	; 24
      0002E4 18                    2077 	.db #0x18	; 24
      0002E5 18                    2078 	.db #0x18	; 24
      0002E6 3C                    2079 	.db #0x3c	; 60
      0002E7 3C                    2080 	.db #0x3c	; 60
      0002E8                       2081 __xinit__spriteYpos:
      0002E8 00                    2082 	.db #0x00	; 0
      0002E9                       2083 __xinit__characterYpos:
      0002E9 8C                    2084 	.db #0x8c	; 140
      0002EA                       2085 __xinit__characterXpos:
      0002EA 50                    2086 	.db #0x50	; 80	'P'
      0002EB                       2087 __xinit__spriteXpos:
      0002EB 14                    2088 	.db #0x14	; 20
                                   2089 	.area _CABS (ABS)
