;--------------------------------------------------------
; File Created by SDCC : free open source ISO C Compiler 
; Version 4.3.2 #14228 (MINGW32)
;--------------------------------------------------------
	.module main
	.optsdcc -msm83
	
;--------------------------------------------------------
; Public variables in this module
;--------------------------------------------------------
	.globl _main
	.globl _playerMovement
	.globl _spriteFall
	.globl _loadSprites
	.globl _setBackground
	.globl _setupSprites
	.globl _moveSprite
	.globl _LoadSpriteFrame
	.globl _set_sprite_data
	.globl _set_bkg_tiles
	.globl _set_bkg_data
	.globl _wait_vbl_done
	.globl _joypad
	.globl _character
	.globl _BackgroundTiles
	.globl _backgroundmap
	.globl _wineglass
	.globl _Wine
	.globl _pint
	.globl _BKGtile
;--------------------------------------------------------
; special function registers
;--------------------------------------------------------
;--------------------------------------------------------
; ram data
;--------------------------------------------------------
	.area _DATA
_wineglass::
	.ds 12
;--------------------------------------------------------
; ram data
;--------------------------------------------------------
	.area _INITIALIZED
_backgroundmap::
	.ds 360
_BackgroundTiles::
	.ds 304
_character::
	.ds 16
;--------------------------------------------------------
; absolute external ram data
;--------------------------------------------------------
	.area _DABS (ABS)
;--------------------------------------------------------
; global & static initialisations
;--------------------------------------------------------
	.area _HOME
	.area _GSINIT
	.area _GSFINAL
	.area _GSINIT
;--------------------------------------------------------
; Home
;--------------------------------------------------------
	.area _HOME
	.area _HOME
;--------------------------------------------------------
; code
;--------------------------------------------------------
	.area _CODE
;spritestructs.h:31: void LoadSpriteFrame(Sprite *sprite, uint8_t frame)
;	---------------------------------
; Function LoadSpriteFrame
; ---------------------------------
_LoadSpriteFrame::
	ld	c, a
;spritestructs.h:33: sprite->spritecurrentFrame = frame;
	ld	hl, #0x0004
	add	hl, de
	ld	(hl), c
;spritestructs.h:35: uint8_t spriteCount = sprite->spriteWidth * sprite->spriteHeight;
	ld	l, e
;	spillPairReg hl
;	spillPairReg hl
	ld	h, d
;	spillPairReg hl
;	spillPairReg hl
	inc	hl
	inc	hl
	ld	c, (hl)
	inc	de
	ld	a, (de)
	ld	e, a
	ld	a, c
;spritestructs.h:37: for (uint8_t i = 0; i != spriteCount; i++, sprite->tileset[sprite-> tilesetStart + i + (frame * spriteCount)]);
	call	__muluchar
	xor	a, a
00103$:
	cp	a, c
	ret	Z
	inc	a
;spritestructs.h:38: }
	jr	00103$
;spritestructs.h:40: void moveSprite (Sprite *sprite, uint8_t x, uint8_t y)
;	---------------------------------
; Function moveSprite
; ---------------------------------
_moveSprite::
	add	sp, #-6
	ldhl	sp,	#2
	ld	(hl), e
	inc	hl
	ld	(hl), d
	dec	hl
	dec	hl
;spritestructs.h:42: sprite->x = x;
	ld	(hl+), a
	ld	a, (hl+)
	ld	e, a
	ld	d, (hl)
	ld	hl, #0x0006
	add	hl, de
	ld	c, l
	ld	b, h
	ldhl	sp,	#1
;spritestructs.h:43: sprite->y = y;
	ld	a, (hl+)
	ld	(bc), a
	ld	a, (hl+)
	ld	e, a
	ld	d, (hl)
	ld	hl, #0x0007
	add	hl, de
	ld	c, l
	ld	b, h
	ldhl	sp,	#8
	ld	a, (hl)
	ld	(bc), a
;spritestructs.h:45: for (uint8_t iy = 0; iy!= sprite->spriteWidth; iy++)
	ldhl	sp,	#2
	ld	a, (hl+)
	ld	c, a
	ld	a, (hl+)
	ld	b, a
	inc	bc
	inc	bc
	ld	(hl), #0x00
00108$:
	ld	a, (bc)
	ld	e, a
	ldhl	sp,	#4
	ld	a, (hl)
	sub	a, e
	jr	Z, 00110$
;spritestructs.h:47: for (uint8_t ix = 0; ix!= sprite->spriteWidth; ix++)
	ldhl	sp,	#5
	ld	(hl), #0x00
00105$:
	ld	a, (bc)
	ldhl	sp,	#0
	ld	(hl), a
	ldhl	sp,	#5
	ld	a, (hl)
	ldhl	sp,	#0
	sub	a, (hl)
	jr	Z, 00109$
;spritestructs.h:49: uint8_t index = sprite->spriteID + ix + (iy * sprite->spriteWidth);
	ldhl	sp,#2
	ld	a, (hl+)
	ld	e, a
	ld	a, (hl+)
	inc	hl
	ld	d, a
	ld	a, (de)
	add	a, (hl)
	ld	d, a
	push	bc
	push	de
	ldhl	sp,	#4
	ld	e, (hl)
	ldhl	sp,	#8
	ld	a, (hl)
	call	__muluchar
	ld	a, c
	pop	de
	pop	bc
	add	a, d
	ld	d, a
;spritestructs.h:51: move_sprite(index, x + (ix * 8), y + (iy * 8));
	ldhl	sp,	#4
	ld	a, (hl)
	add	a, a
	add	a, a
	add	a, a
	ldhl	sp,	#8
	ld	e, (hl)
	add	a, e
	ld	e, a
	ldhl	sp,	#5
	ld	a, (hl)
	add	a, a
	add	a, a
	add	a, a
	ldhl	sp,	#1
	ld	l, (hl)
;	spillPairReg hl
;	spillPairReg hl
	add	a, l
	ldhl	sp,	#0
	ld	(hl), a
;c:\gbdk\include\gb\gb.h:1877: OAM_item_t * itm = &shadow_OAM[nb];
	ld	h, #0x00
;	spillPairReg hl
;	spillPairReg hl
	ld	l, d
	add	hl, hl
	add	hl, hl
	push	de
	ld	de, #_shadow_OAM
	add	hl, de
	pop	de
;c:\gbdk\include\gb\gb.h:1878: itm->y=y, itm->x=x;
	ld	a, e
	ld	(hl+), a
	ld	e, l
	ld	d, h
	ldhl	sp,	#0
	ld	a, (hl)
	ld	(de), a
;spritestructs.h:47: for (uint8_t ix = 0; ix!= sprite->spriteWidth; ix++)
	ldhl	sp,	#5
	inc	(hl)
	jr	00105$
00109$:
;spritestructs.h:45: for (uint8_t iy = 0; iy!= sprite->spriteWidth; iy++)
	ldhl	sp,	#4
	inc	(hl)
	jr	00108$
00110$:
;spritestructs.h:54: }
	add	sp, #6
	pop	hl
	inc	sp
	jp	(hl)
;spritestructs.h:56: void setupSprites(Sprite *sprite, uint8_t spriteID, int8_t spriteHeight, uint8_t spriteWidth, uint8_t spriteFrames, uint8_t spritecurrentFrame, uint8_t tilesetStart, uint8_t x, uint8_t y,
;	---------------------------------
; Function setupSprites
; ---------------------------------
_setupSprites::
	dec	sp
	ldhl	sp,	#0
	ld	(hl), a
;spritestructs.h:59: sprite->tileset = tileset;
	ld	hl, #0x000a
	add	hl, de
	ld	c, l
	ld	b, h
	ldhl	sp,	#12
	ld	a, (hl+)
	ld	(bc), a
	inc	bc
	ld	a, (hl)
	ld	(bc), a
;spritestructs.h:60: sprite->tilesetStart = tilesetStart;
	ld	hl, #0x0005
	add	hl, de
	ld	c, l
	ld	b, h
	ldhl	sp,	#7
	ld	a, (hl)
	ld	(bc), a
;spritestructs.h:61: sprite->spriteID = spriteID;
	ldhl	sp,	#0
	ld	a, (hl)
	ld	(de), a
;spritestructs.h:62: sprite->spriteHeight = spriteHeight;
	ld	c, e
	ld	b, d
	inc	bc
	ldhl	sp,	#3
;spritestructs.h:63: sprite->spriteWidth = spriteWidth;
	ld	a, (hl+)
	ld	(bc), a
	ld	c, e
	ld	b, d
	inc	bc
	inc	bc
;spritestructs.h:64: sprite->spriteFrames = spriteFrames;
	ld	a, (hl+)
	ld	(bc), a
	ld	c, e
	ld	b, d
	inc	bc
	inc	bc
	inc	bc
	ld	a, (hl)
	ld	(bc), a
;spritestructs.h:65: sprite->spritecurrentFrame = spritecurrentFrame;
	ld	hl, #0x0004
	add	hl, de
	ld	c, l
	ld	b, h
	ldhl	sp,	#6
	ld	a, (hl)
	ld	(bc), a
;spritestructs.h:66: sprite->x = x;
	ld	hl, #0x0006
	add	hl, de
	ld	c, l
	ld	b, h
	ldhl	sp,	#8
	ld	a, (hl)
	ld	(bc), a
;spritestructs.h:67: sprite->y = y;
	ld	hl, #0x0007
	add	hl, de
	ld	c, l
	ld	b, h
	ldhl	sp,	#9
	ld	a, (hl)
	ld	(bc), a
;spritestructs.h:68: sprite->velocityX = velocityX;
	ld	hl, #0x0008
	add	hl, de
	ld	c, l
	ld	b, h
	ldhl	sp,	#10
	ld	a, (hl)
	ld	(bc), a
;spritestructs.h:69: sprite->velocityY = velocityY;
	ld	hl, #0x0009
	add	hl, de
	ld	c, l
	ld	b, h
	ldhl	sp,	#11
	ld	a, (hl)
	ld	(bc), a
;spritestructs.h:71: LoadSpriteFrame(sprite, 0);
	xor	a, a
	call	_LoadSpriteFrame
;spritestructs.h:78: }
	inc	sp
	pop	hl
	add	sp, #11
	jp	(hl)
;main.c:41: void setBackground(void){
;	---------------------------------
; Function setBackground
; ---------------------------------
_setBackground::
;main.c:43: set_bkg_data(0, 18, BackgroundTiles);
	ld	de, #_BackgroundTiles
	push	de
	ld	hl, #0x1200
	push	hl
	call	_set_bkg_data
	add	sp, #4
;main.c:44: set_bkg_tiles(0, 0, 20, 18, backgroundmap);
	ld	de, #_backgroundmap
	push	de
	ld	hl, #0x1214
	push	hl
	xor	a, a
	rrca
	push	af
	call	_set_bkg_tiles
	add	sp, #6
;main.c:47: }
	ret
_BKGtile:
	.db #0xff	; 255
	.db #0x00	; 0
	.db #0x81	; 129
	.db #0x7e	; 126
	.db #0xbd	; 189
	.db #0x42	; 66	'B'
	.db #0xa5	; 165
	.db #0x5a	; 90	'Z'
	.db #0xa5	; 165
	.db #0x5a	; 90	'Z'
	.db #0xbd	; 189
	.db #0x42	; 66	'B'
	.db #0x81	; 129
	.db #0x7e	; 126
	.db #0xff	; 255
	.db #0x00	; 0
_pint:
	.db #0x7e	; 126
	.db #0x42	; 66	'B'
	.db #0x42	; 66	'B'
	.db #0x7e	; 126
	.db #0x42	; 66	'B'
	.db #0x7e	; 126
	.db #0x42	; 66	'B'
	.db #0x7e	; 126
	.db #0x42	; 66	'B'
	.db #0x7e	; 126
	.db #0x42	; 66	'B'
	.db #0x7e	; 126
	.db #0x42	; 66	'B'
	.db #0x7e	; 126
	.db #0x3c	; 60
	.db #0x3c	; 60
_Wine:
	.db #0x42	; 66	'B'
	.db #0x7e	; 126
	.db #0x42	; 66	'B'
	.db #0x7e	; 126
	.db #0x42	; 66	'B'
	.db #0x7e	; 126
	.db #0x3c	; 60
	.db #0x3c	; 60
	.db #0x18	; 24
	.db #0x18	; 24
	.db #0x18	; 24
	.db #0x18	; 24
	.db #0x18	; 24
	.db #0x18	; 24
	.db #0x3c	; 60
	.db #0x3c	; 60
;main.c:49: void loadSprites(void)
;	---------------------------------
; Function loadSprites
; ---------------------------------
_loadSprites::
;main.c:51: set_sprite_data(0, 1, Wine);
	ld	de, #_Wine
	push	de
	xor	a, a
	inc	a
	push	af
	call	_set_sprite_data
	add	sp, #4
;main.c:52: set_sprite_data(1, 1, character);
	ld	de, #_character
	push	de
	ld	hl, #0x101
	push	hl
	call	_set_sprite_data
	add	sp, #4
;c:\gbdk\include\gb\gb.h:1804: shadow_OAM[nb].tile=tile;
	ld	hl, #(_shadow_OAM + 6)
	ld	(hl), #0x01
	ld	hl, #(_shadow_OAM + 10)
	ld	(hl), #0x01
;main.c:55: set_sprite_tile(2, 1);
;main.c:57: }
	ret
;main.c:60: void spriteFall(void)
;	---------------------------------
; Function spriteFall
; ---------------------------------
_spriteFall::
;c:\gbdk\include\gb\gb.h:1893: OAM_item_t * itm = &shadow_OAM[nb];
	ld	bc, #_shadow_OAM+0
;c:\gbdk\include\gb\gb.h:1894: itm->y+=y, itm->x+=x;
	ld	a, (bc)
	inc	a
	ld	(bc), a
	inc	bc
	ld	a, (bc)
	ld	(bc), a
;main.c:63: wait_vbl_done();
;main.c:65: }
	jp	_wait_vbl_done
;main.c:67: void playerMovement(void)
;	---------------------------------
; Function playerMovement
; ---------------------------------
_playerMovement::
;main.c:69: int8_t moveX = 0;
	ld	c, #0x00
;main.c:70: uint8_t buttons = joypad();
	call	_joypad
;main.c:72: if (buttons & J_LEFT){
	bit	1, a
	jr	Z, 00102$
;main.c:73: moveX = -1;
	ld	c, #0xff
00102$:
;main.c:75: if (buttons & J_RIGHT){
	rrca
	jr	NC, 00104$
;main.c:76: moveX = 1;
	ld	c, #0x01
00104$:
;c:\gbdk\include\gb\gb.h:1893: OAM_item_t * itm = &shadow_OAM[nb];
	ld	de, #_shadow_OAM+4
;c:\gbdk\include\gb\gb.h:1894: itm->y+=y, itm->x+=x;
	ld	a, (de)
	ld	(de), a
	inc	de
	ld	a, (de)
	add	a, c
	ld	(de), a
;main.c:79: scroll_sprite(1, moveX, 0);
;main.c:80: }
	ret
;main.c:82: void main(void)
;	---------------------------------
; Function main
; ---------------------------------
_main::
;main.c:86: DISPLAY_ON;
	ldh	a, (_LCDC_REG + 0)
	or	a, #0x80
	ldh	(_LCDC_REG + 0), a
;main.c:87: SHOW_BKG;
	ldh	a, (_LCDC_REG + 0)
	or	a, #0x01
	ldh	(_LCDC_REG + 0), a
;main.c:88: SHOW_SPRITES;
	ldh	a, (_LCDC_REG + 0)
	or	a, #0x02
	ldh	(_LCDC_REG + 0), a
;main.c:90: setBackground();
	call	_setBackground
;main.c:91: loadSprites();
	call	_loadSprites
;c:\gbdk\include\gb\gb.h:1877: OAM_item_t * itm = &shadow_OAM[nb];
	ld	hl, #(_shadow_OAM + 4)
;c:\gbdk\include\gb\gb.h:1878: itm->y=y, itm->x=x;
	ld	a, #0x96
	ld	(hl+), a
	ld	(hl), #0x50
;main.c:94: setupSprites(&wineglass, 0, 1, 1, 1, 1, 0, 30, 30, 0, 0, Wine);
	ld	de, #_Wine
	push	de
	xor	a, a
	rrca
	push	af
	ld	hl, #0x1e1e
	push	hl
	xor	a, a
	ld	h, a
	ld	l, #0x01
	push	hl
	ld	hl, #0x101
	push	hl
	ld	a, #0x01
	push	af
	inc	sp
	xor	a, a
	ld	de, #_wineglass
	call	_setupSprites
;main.c:96: moveSprite(&wineglass, 30, 30);
	ld	a, #0x1e
	push	af
	inc	sp
	ld	a, #0x1e
	ld	de, #_wineglass
	call	_moveSprite
;main.c:98: while (1) {
00102$:
;main.c:100: spriteFall();
	call	_spriteFall
;main.c:101: playerMovement();
	call	_playerMovement
;main.c:108: }
	jr	00102$
	.area _CODE
	.area _INITIALIZER
__xinit__backgroundmap:
	.db #0x07	; 7
	.db #0x07	; 7
	.db #0x07	; 7
	.db #0x07	; 7
	.db #0x07	; 7
	.db #0x07	; 7
	.db #0x07	; 7
	.db #0x07	; 7
	.db #0x07	; 7
	.db #0x07	; 7
	.db #0x07	; 7
	.db #0x07	; 7
	.db #0x07	; 7
	.db #0x07	; 7
	.db #0x07	; 7
	.db #0x07	; 7
	.db #0x07	; 7
	.db #0x07	; 7
	.db #0x07	; 7
	.db #0x07	; 7
	.db #0x07	; 7
	.db #0x05	; 5
	.db #0x05	; 5
	.db #0x05	; 5
	.db #0x05	; 5
	.db #0x05	; 5
	.db #0x05	; 5
	.db #0x05	; 5
	.db #0x05	; 5
	.db #0x05	; 5
	.db #0x05	; 5
	.db #0x05	; 5
	.db #0x05	; 5
	.db #0x05	; 5
	.db #0x05	; 5
	.db #0x05	; 5
	.db #0x05	; 5
	.db #0x05	; 5
	.db #0x05	; 5
	.db #0x07	; 7
	.db #0x07	; 7
	.db #0x05	; 5
	.db #0x05	; 5
	.db #0x05	; 5
	.db #0x05	; 5
	.db #0x05	; 5
	.db #0x05	; 5
	.db #0x05	; 5
	.db #0x05	; 5
	.db #0x05	; 5
	.db #0x05	; 5
	.db #0x05	; 5
	.db #0x05	; 5
	.db #0x05	; 5
	.db #0x05	; 5
	.db #0x05	; 5
	.db #0x05	; 5
	.db #0x05	; 5
	.db #0x05	; 5
	.db #0x07	; 7
	.db #0x07	; 7
	.db #0x05	; 5
	.db #0x05	; 5
	.db #0x05	; 5
	.db #0x05	; 5
	.db #0x05	; 5
	.db #0x05	; 5
	.db #0x05	; 5
	.db #0x05	; 5
	.db #0x05	; 5
	.db #0x05	; 5
	.db #0x05	; 5
	.db #0x05	; 5
	.db #0x05	; 5
	.db #0x05	; 5
	.db #0x05	; 5
	.db #0x05	; 5
	.db #0x05	; 5
	.db #0x05	; 5
	.db #0x07	; 7
	.db #0x07	; 7
	.db #0x05	; 5
	.db #0x00	; 0
	.db #0x00	; 0
	.db #0x0e	; 14
	.db #0x0e	; 14
	.db #0x0e	; 14
	.db #0x0e	; 14
	.db #0x00	; 0
	.db #0x00	; 0
	.db #0x00	; 0
	.db #0x00	; 0
	.db #0x0e	; 14
	.db #0x0e	; 14
	.db #0x0e	; 14
	.db #0x0e	; 14
	.db #0x00	; 0
	.db #0x00	; 0
	.db #0x05	; 5
	.db #0x07	; 7
	.db #0x07	; 7
	.db #0x05	; 5
	.db #0x00	; 0
	.db #0x00	; 0
	.db #0x0d	; 13
	.db #0x0d	; 13
	.db #0x0d	; 13
	.db #0x0d	; 13
	.db #0x00	; 0
	.db #0x00	; 0
	.db #0x00	; 0
	.db #0x00	; 0
	.db #0x0d	; 13
	.db #0x0d	; 13
	.db #0x0d	; 13
	.db #0x0d	; 13
	.db #0x00	; 0
	.db #0x00	; 0
	.db #0x05	; 5
	.db #0x07	; 7
	.db #0x07	; 7
	.db #0x05	; 5
	.db #0x00	; 0
	.db #0x00	; 0
	.db #0x00	; 0
	.db #0x00	; 0
	.db #0x00	; 0
	.db #0x00	; 0
	.db #0x00	; 0
	.db #0x00	; 0
	.db #0x00	; 0
	.db #0x00	; 0
	.db #0x00	; 0
	.db #0x00	; 0
	.db #0x00	; 0
	.db #0x00	; 0
	.db #0x00	; 0
	.db #0x00	; 0
	.db #0x05	; 5
	.db #0x07	; 7
	.db #0x07	; 7
	.db #0x05	; 5
	.db #0x0c	; 12
	.db #0x0c	; 12
	.db #0x0c	; 12
	.db #0x0c	; 12
	.db #0x0c	; 12
	.db #0x00	; 0
	.db #0x00	; 0
	.db #0x00	; 0
	.db #0x00	; 0
	.db #0x00	; 0
	.db #0x00	; 0
	.db #0x00	; 0
	.db #0x00	; 0
	.db #0x00	; 0
	.db #0x00	; 0
	.db #0x00	; 0
	.db #0x05	; 5
	.db #0x07	; 7
	.db #0x07	; 7
	.db #0x05	; 5
	.db #0x09	; 9
	.db #0x09	; 9
	.db #0x09	; 9
	.db #0x09	; 9
	.db #0x09	; 9
	.db #0x00	; 0
	.db #0x00	; 0
	.db #0x00	; 0
	.db #0x00	; 0
	.db #0x00	; 0
	.db #0x00	; 0
	.db #0x08	; 8
	.db #0x08	; 8
	.db #0x08	; 8
	.db #0x08	; 8
	.db #0x08	; 8
	.db #0x05	; 5
	.db #0x07	; 7
	.db #0x07	; 7
	.db #0x05	; 5
	.db #0x00	; 0
	.db #0x00	; 0
	.db #0x00	; 0
	.db #0x00	; 0
	.db #0x00	; 0
	.db #0x00	; 0
	.db #0x00	; 0
	.db #0x00	; 0
	.db #0x00	; 0
	.db #0x00	; 0
	.db #0x00	; 0
	.db #0x00	; 0
	.db #0x00	; 0
	.db #0x00	; 0
	.db #0x00	; 0
	.db #0x00	; 0
	.db #0x05	; 5
	.db #0x07	; 7
	.db #0x07	; 7
	.db #0x05	; 5
	.db #0x00	; 0
	.db #0x00	; 0
	.db #0x00	; 0
	.db #0x00	; 0
	.db #0x00	; 0
	.db #0x00	; 0
	.db #0x00	; 0
	.db #0x00	; 0
	.db #0x00	; 0
	.db #0x00	; 0
	.db #0x00	; 0
	.db #0x00	; 0
	.db #0x00	; 0
	.db #0x00	; 0
	.db #0x00	; 0
	.db #0x00	; 0
	.db #0x05	; 5
	.db #0x07	; 7
	.db #0x07	; 7
	.db #0x05	; 5
	.db #0x00	; 0
	.db #0x00	; 0
	.db #0x10	; 16
	.db #0x00	; 0
	.db #0x00	; 0
	.db #0x10	; 16
	.db #0x00	; 0
	.db #0x00	; 0
	.db #0x00	; 0
	.db #0x00	; 0
	.db #0x10	; 16
	.db #0x00	; 0
	.db #0x00	; 0
	.db #0x10	; 16
	.db #0x00	; 0
	.db #0x00	; 0
	.db #0x05	; 5
	.db #0x07	; 7
	.db #0x07	; 7
	.db #0x05	; 5
	.db #0x00	; 0
	.db #0x00	; 0
	.db #0x0f	; 15
	.db #0x00	; 0
	.db #0x00	; 0
	.db #0x11	; 17
	.db #0x00	; 0
	.db #0x00	; 0
	.db #0x00	; 0
	.db #0x00	; 0
	.db #0x11	; 17
	.db #0x00	; 0
	.db #0x00	; 0
	.db #0x0f	; 15
	.db #0x00	; 0
	.db #0x00	; 0
	.db #0x05	; 5
	.db #0x07	; 7
	.db #0x07	; 7
	.db #0x00	; 0
	.db #0x02	; 2
	.db #0x03	; 3
	.db #0x03	; 3
	.db #0x03	; 3
	.db #0x03	; 3
	.db #0x03	; 3
	.db #0x03	; 3
	.db #0x03	; 3
	.db #0x03	; 3
	.db #0x03	; 3
	.db #0x03	; 3
	.db #0x03	; 3
	.db #0x03	; 3
	.db #0x03	; 3
	.db #0x03	; 3
	.db #0x04	; 4
	.db #0x00	; 0
	.db #0x07	; 7
	.db #0x07	; 7
	.db #0x00	; 0
	.db #0x06	; 6
	.db #0x06	; 6
	.db #0x06	; 6
	.db #0x06	; 6
	.db #0x06	; 6
	.db #0x06	; 6
	.db #0x06	; 6
	.db #0x06	; 6
	.db #0x06	; 6
	.db #0x06	; 6
	.db #0x06	; 6
	.db #0x06	; 6
	.db #0x06	; 6
	.db #0x06	; 6
	.db #0x06	; 6
	.db #0x06	; 6
	.db #0x00	; 0
	.db #0x07	; 7
	.db #0x07	; 7
	.db #0x00	; 0
	.db #0x06	; 6
	.db #0x06	; 6
	.db #0x06	; 6
	.db #0x06	; 6
	.db #0x06	; 6
	.db #0x06	; 6
	.db #0x06	; 6
	.db #0x06	; 6
	.db #0x06	; 6
	.db #0x06	; 6
	.db #0x06	; 6
	.db #0x06	; 6
	.db #0x06	; 6
	.db #0x06	; 6
	.db #0x06	; 6
	.db #0x06	; 6
	.db #0x00	; 0
	.db #0x07	; 7
	.db #0x07	; 7
	.db #0x01	; 1
	.db #0x06	; 6
	.db #0x06	; 6
	.db #0x06	; 6
	.db #0x06	; 6
	.db #0x06	; 6
	.db #0x06	; 6
	.db #0x06	; 6
	.db #0x06	; 6
	.db #0x06	; 6
	.db #0x06	; 6
	.db #0x06	; 6
	.db #0x06	; 6
	.db #0x06	; 6
	.db #0x06	; 6
	.db #0x06	; 6
	.db #0x06	; 6
	.db #0x01	; 1
	.db #0x07	; 7
	.db #0x05	; 5
	.db #0x05	; 5
	.db #0x05	; 5
	.db #0x05	; 5
	.db #0x05	; 5
	.db #0x05	; 5
	.db #0x05	; 5
	.db #0x05	; 5
	.db #0x05	; 5
	.db #0x05	; 5
	.db #0x05	; 5
	.db #0x05	; 5
	.db #0x05	; 5
	.db #0x05	; 5
	.db #0x05	; 5
	.db #0x05	; 5
	.db #0x05	; 5
	.db #0x05	; 5
	.db #0x05	; 5
	.db #0x05	; 5
__xinit__BackgroundTiles:
	.db #0x00	; 0
	.db #0x00	; 0
	.db #0x00	; 0
	.db #0x00	; 0
	.db #0x00	; 0
	.db #0x00	; 0
	.db #0x00	; 0
	.db #0x00	; 0
	.db #0x00	; 0
	.db #0x00	; 0
	.db #0x00	; 0
	.db #0x00	; 0
	.db #0x00	; 0
	.db #0x00	; 0
	.db #0x00	; 0
	.db #0x00	; 0
	.db #0x00	; 0
	.db #0x00	; 0
	.db #0x00	; 0
	.db #0x00	; 0
	.db #0x00	; 0
	.db #0x00	; 0
	.db #0x00	; 0
	.db #0x00	; 0
	.db #0x00	; 0
	.db #0x00	; 0
	.db #0xff	; 255
	.db #0xff	; 255
	.db #0x00	; 0
	.db #0xff	; 255
	.db #0xff	; 255
	.db #0x00	; 0
	.db #0x7f	; 127
	.db #0x7f	; 127
	.db #0xaa	; 170
	.db #0xd5	; 213
	.db #0xaa	; 170
	.db #0xd5	; 213
	.db #0xaa	; 170
	.db #0xd5	; 213
	.db #0xaa	; 170
	.db #0xd5	; 213
	.db #0xaa	; 170
	.db #0xd5	; 213
	.db #0xaa	; 170
	.db #0xd5	; 213
	.db #0xaa	; 170
	.db #0xd5	; 213
	.db #0xff	; 255
	.db #0xff	; 255
	.db #0xaa	; 170
	.db #0x55	; 85	'U'
	.db #0xaa	; 170
	.db #0x55	; 85	'U'
	.db #0xaa	; 170
	.db #0x55	; 85	'U'
	.db #0xaa	; 170
	.db #0x55	; 85	'U'
	.db #0xaa	; 170
	.db #0x55	; 85	'U'
	.db #0xaa	; 170
	.db #0x55	; 85	'U'
	.db #0xaa	; 170
	.db #0x55	; 85	'U'
	.db #0xfe	; 254
	.db #0xfe	; 254
	.db #0xab	; 171
	.db #0x55	; 85	'U'
	.db #0xab	; 171
	.db #0x55	; 85	'U'
	.db #0xab	; 171
	.db #0x55	; 85	'U'
	.db #0xab	; 171
	.db #0x55	; 85	'U'
	.db #0xab	; 171
	.db #0x55	; 85	'U'
	.db #0xab	; 171
	.db #0x55	; 85	'U'
	.db #0xab	; 171
	.db #0x55	; 85	'U'
	.db #0x00	; 0
	.db #0xff	; 255
	.db #0x00	; 0
	.db #0xff	; 255
	.db #0x00	; 0
	.db #0xff	; 255
	.db #0x00	; 0
	.db #0xff	; 255
	.db #0x00	; 0
	.db #0xff	; 255
	.db #0x00	; 0
	.db #0xff	; 255
	.db #0x00	; 0
	.db #0xff	; 255
	.db #0x00	; 0
	.db #0xff	; 255
	.db #0xff	; 255
	.db #0x00	; 0
	.db #0xff	; 255
	.db #0x00	; 0
	.db #0xff	; 255
	.db #0x00	; 0
	.db #0xff	; 255
	.db #0x00	; 0
	.db #0xff	; 255
	.db #0x00	; 0
	.db #0xff	; 255
	.db #0x00	; 0
	.db #0xff	; 255
	.db #0x00	; 0
	.db #0xff	; 255
	.db #0x00	; 0
	.db #0xff	; 255
	.db #0xff	; 255
	.db #0xff	; 255
	.db #0xff	; 255
	.db #0xff	; 255
	.db #0xff	; 255
	.db #0xff	; 255
	.db #0xff	; 255
	.db #0xff	; 255
	.db #0xff	; 255
	.db #0xff	; 255
	.db #0xff	; 255
	.db #0xff	; 255
	.db #0xff	; 255
	.db #0xff	; 255
	.db #0xff	; 255
	.db #0x7e	; 126
	.db #0x42	; 66	'B'
	.db #0x3c	; 60
	.db #0x24	; 36
	.db #0x18	; 24
	.db #0x18	; 24
	.db #0x18	; 24
	.db #0x18	; 24
	.db #0x3c	; 60
	.db #0x3c	; 60
	.db #0x00	; 0
	.db #0xff	; 255
	.db #0xff	; 255
	.db #0x00	; 0
	.db #0xff	; 255
	.db #0x00	; 0
	.db #0x42	; 66	'B'
	.db #0x42	; 66	'B'
	.db #0x42	; 66	'B'
	.db #0x42	; 66	'B'
	.db #0x42	; 66	'B'
	.db #0x42	; 66	'B'
	.db #0x42	; 66	'B'
	.db #0x42	; 66	'B'
	.db #0x3c	; 60
	.db #0x3c	; 60
	.db #0x00	; 0
	.db #0xff	; 255
	.db #0xff	; 255
	.db #0x00	; 0
	.db #0xff	; 255
	.db #0x00	; 0
	.db #0x7e	; 126
	.db #0x42	; 66	'B'
	.db #0x7e	; 126
	.db #0x42	; 66	'B'
	.db #0x7e	; 126
	.db #0x42	; 66	'B'
	.db #0x7e	; 126
	.db #0x42	; 66	'B'
	.db #0x3c	; 60
	.db #0x3c	; 60
	.db #0x00	; 0
	.db #0xff	; 255
	.db #0xff	; 255
	.db #0x00	; 0
	.db #0xff	; 255
	.db #0x00	; 0
	.db #0x00	; 0
	.db #0x00	; 0
	.db #0x00	; 0
	.db #0x00	; 0
	.db #0x00	; 0
	.db #0x00	; 0
	.db #0x00	; 0
	.db #0x00	; 0
	.db #0x00	; 0
	.db #0x00	; 0
	.db #0x00	; 0
	.db #0x00	; 0
	.db #0x00	; 0
	.db #0x00	; 0
	.db #0x42	; 66	'B'
	.db #0x7e	; 126
	.db #0x00	; 0
	.db #0x00	; 0
	.db #0x00	; 0
	.db #0x00	; 0
	.db #0x00	; 0
	.db #0x00	; 0
	.db #0x00	; 0
	.db #0x00	; 0
	.db #0x00	; 0
	.db #0x00	; 0
	.db #0x00	; 0
	.db #0x00	; 0
	.db #0x00	; 0
	.db #0x00	; 0
	.db #0x42	; 66	'B'
	.db #0x42	; 66	'B'
	.db #0x7e	; 126
	.db #0x4a	; 74	'J'
	.db #0x7e	; 126
	.db #0x52	; 82	'R'
	.db #0x42	; 66	'B'
	.db #0x7e	; 126
	.db #0x42	; 66	'B'
	.db #0x7e	; 126
	.db #0x7e	; 126
	.db #0x7e	; 126
	.db #0x00	; 0
	.db #0xff	; 255
	.db #0xff	; 255
	.db #0x00	; 0
	.db #0xff	; 255
	.db #0x00	; 0
	.db #0x00	; 0
	.db #0x00	; 0
	.db #0x00	; 0
	.db #0x00	; 0
	.db #0x00	; 0
	.db #0x00	; 0
	.db #0x18	; 24
	.db #0x00	; 0
	.db #0x18	; 24
	.db #0x18	; 24
	.db #0x18	; 24
	.db #0x18	; 24
	.db #0x24	; 36
	.db #0x3c	; 60
	.db #0x42	; 66	'B'
	.db #0x7e	; 126
	.db #0x3c	; 60
	.db #0x3c	; 60
	.db #0x3c	; 60
	.db #0x3c	; 60
	.db #0x3c	; 60
	.db #0x00	; 0
	.db #0x42	; 66	'B'
	.db #0x3c	; 60
	.db #0x42	; 66	'B'
	.db #0x3c	; 60
	.db #0x42	; 66	'B'
	.db #0x3c	; 60
	.db #0x3c	; 60
	.db #0x00	; 0
	.db #0x3c	; 60
	.db #0x3c	; 60
	.db #0x00	; 0
	.db #0x00	; 0
	.db #0x00	; 0
	.db #0x00	; 0
	.db #0x00	; 0
	.db #0x00	; 0
	.db #0x00	; 0
	.db #0x00	; 0
	.db #0x00	; 0
	.db #0x00	; 0
	.db #0x00	; 0
	.db #0x00	; 0
	.db #0x00	; 0
	.db #0x00	; 0
	.db #0x18	; 24
	.db #0x18	; 24
	.db #0x3c	; 60
	.db #0x3c	; 60
	.db #0x3c	; 60
	.db #0x00	; 0
	.db #0x66	; 102	'f'
	.db #0x18	; 24
	.db #0xa5	; 165
	.db #0x5a	; 90	'Z'
	.db #0xa5	; 165
	.db #0x5a	; 90	'Z'
	.db #0x66	; 102	'f'
	.db #0x18	; 24
	.db #0x3c	; 60
	.db #0x00	; 0
	.db #0x3c	; 60
	.db #0x3c	; 60
	.db #0x00	; 0
	.db #0x00	; 0
	.db #0x00	; 0
	.db #0x00	; 0
	.db #0x00	; 0
	.db #0x00	; 0
	.db #0x00	; 0
	.db #0x00	; 0
	.db #0x00	; 0
	.db #0x00	; 0
	.db #0x00	; 0
	.db #0x00	; 0
	.db #0x00	; 0
	.db #0x00	; 0
	.db #0x00	; 0
	.db #0x00	; 0
__xinit__character:
	.db #0x7e	; 126
	.db #0x7e	; 126
	.db #0x42	; 66	'B'
	.db #0x5a	; 90	'Z'
	.db #0x42	; 66	'B'
	.db #0x42	; 66	'B'
	.db #0x7e	; 126
	.db #0x7e	; 126
	.db #0x18	; 24
	.db #0x18	; 24
	.db #0x3c	; 60
	.db #0x3c	; 60
	.db #0x18	; 24
	.db #0x18	; 24
	.db #0x24	; 36
	.db #0x24	; 36
	.area _CABS (ABS)
